ARM GAS  /tmp/ccIxxzUe.s 			page 1


   1              		.cpu cortex-m4
   2              		.eabi_attribute 27, 1
   3              		.eabi_attribute 28, 1
   4              		.eabi_attribute 20, 1
   5              		.eabi_attribute 21, 1
   6              		.eabi_attribute 23, 3
   7              		.eabi_attribute 24, 1
   8              		.eabi_attribute 25, 1
   9              		.eabi_attribute 26, 1
  10              		.eabi_attribute 30, 1
  11              		.eabi_attribute 34, 1
  12              		.eabi_attribute 18, 4
  13              		.file	"can.c"
  14              		.text
  15              	.Ltext0:
  16              		.cfi_sections	.debug_frame
  17              		.section	.text.MX_CAN2_Init,"ax",%progbits
  18              		.align	1
  19              		.global	MX_CAN2_Init
  20              		.arch armv7e-m
  21              		.syntax unified
  22              		.thumb
  23              		.thumb_func
  24              		.fpu fpv4-sp-d16
  26              	MX_CAN2_Init:
  27              	.LFB130:
  28              		.file 1 "Core/Src/can.c"
   1:Core/Src/can.c **** /**
   2:Core/Src/can.c ****   ******************************************************************************
   3:Core/Src/can.c ****   * @file    can.c
   4:Core/Src/can.c ****   * @brief   This file provides code for the configuration
   5:Core/Src/can.c ****   *          of the CAN instances.
   6:Core/Src/can.c ****   ******************************************************************************
   7:Core/Src/can.c ****   * @attention
   8:Core/Src/can.c ****   *
   9:Core/Src/can.c ****   * <h2><center>&copy; Copyright (c) 2021 STMicroelectronics.
  10:Core/Src/can.c ****   * All rights reserved.</center></h2>
  11:Core/Src/can.c ****   *
  12:Core/Src/can.c ****   * This software component is licensed by ST under Ultimate Liberty license
  13:Core/Src/can.c ****   * SLA0044, the "License"; You may not use this file except in compliance with
  14:Core/Src/can.c ****   * the License. You may obtain a copy of the License at:
  15:Core/Src/can.c ****   *                             www.st.com/SLA0044
  16:Core/Src/can.c ****   *
  17:Core/Src/can.c ****   ******************************************************************************
  18:Core/Src/can.c ****   */
  19:Core/Src/can.c **** 
  20:Core/Src/can.c **** /* Includes ------------------------------------------------------------------*/
  21:Core/Src/can.c **** #include "can.h"
  22:Core/Src/can.c **** 
  23:Core/Src/can.c **** /* USER CODE BEGIN 0 */
  24:Core/Src/can.c **** 
  25:Core/Src/can.c **** /* USER CODE END 0 */
  26:Core/Src/can.c **** 
  27:Core/Src/can.c **** CAN_HandleTypeDef hcan2;
  28:Core/Src/can.c **** 
  29:Core/Src/can.c **** /* CAN2 init function */
  30:Core/Src/can.c **** void MX_CAN2_Init(void)
ARM GAS  /tmp/ccIxxzUe.s 			page 2


  31:Core/Src/can.c **** {
  29              		.loc 1 31 1 view -0
  30              		.cfi_startproc
  31              		@ args = 0, pretend = 0, frame = 0
  32              		@ frame_needed = 0, uses_anonymous_args = 0
  33 0000 08B5     		push	{r3, lr}
  34              	.LCFI0:
  35              		.cfi_def_cfa_offset 8
  36              		.cfi_offset 3, -8
  37              		.cfi_offset 14, -4
  32:Core/Src/can.c **** 
  33:Core/Src/can.c ****   hcan2.Instance = CAN2;
  38              		.loc 1 33 3 view .LVU1
  39              		.loc 1 33 18 is_stmt 0 view .LVU2
  40 0002 0B48     		ldr	r0, .L5
  41 0004 0B4B     		ldr	r3, .L5+4
  42 0006 0360     		str	r3, [r0]
  34:Core/Src/can.c ****   hcan2.Init.Prescaler = 16;
  43              		.loc 1 34 3 is_stmt 1 view .LVU3
  44              		.loc 1 34 24 is_stmt 0 view .LVU4
  45 0008 1023     		movs	r3, #16
  46 000a 4360     		str	r3, [r0, #4]
  35:Core/Src/can.c ****   hcan2.Init.Mode = CAN_MODE_NORMAL;
  47              		.loc 1 35 3 is_stmt 1 view .LVU5
  48              		.loc 1 35 19 is_stmt 0 view .LVU6
  49 000c 0023     		movs	r3, #0
  50 000e 8360     		str	r3, [r0, #8]
  36:Core/Src/can.c ****   hcan2.Init.SyncJumpWidth = CAN_SJW_1TQ;
  51              		.loc 1 36 3 is_stmt 1 view .LVU7
  52              		.loc 1 36 28 is_stmt 0 view .LVU8
  53 0010 C360     		str	r3, [r0, #12]
  37:Core/Src/can.c ****   hcan2.Init.TimeSeg1 = CAN_BS1_1TQ;
  54              		.loc 1 37 3 is_stmt 1 view .LVU9
  55              		.loc 1 37 23 is_stmt 0 view .LVU10
  56 0012 0361     		str	r3, [r0, #16]
  38:Core/Src/can.c ****   hcan2.Init.TimeSeg2 = CAN_BS2_1TQ;
  57              		.loc 1 38 3 is_stmt 1 view .LVU11
  58              		.loc 1 38 23 is_stmt 0 view .LVU12
  59 0014 4361     		str	r3, [r0, #20]
  39:Core/Src/can.c ****   hcan2.Init.TimeTriggeredMode = DISABLE;
  60              		.loc 1 39 3 is_stmt 1 view .LVU13
  61              		.loc 1 39 32 is_stmt 0 view .LVU14
  62 0016 0376     		strb	r3, [r0, #24]
  40:Core/Src/can.c ****   hcan2.Init.AutoBusOff = DISABLE;
  63              		.loc 1 40 3 is_stmt 1 view .LVU15
  64              		.loc 1 40 25 is_stmt 0 view .LVU16
  65 0018 4376     		strb	r3, [r0, #25]
  41:Core/Src/can.c ****   hcan2.Init.AutoWakeUp = DISABLE;
  66              		.loc 1 41 3 is_stmt 1 view .LVU17
  67              		.loc 1 41 25 is_stmt 0 view .LVU18
  68 001a 8376     		strb	r3, [r0, #26]
  42:Core/Src/can.c ****   hcan2.Init.AutoRetransmission = DISABLE;
  69              		.loc 1 42 3 is_stmt 1 view .LVU19
  70              		.loc 1 42 33 is_stmt 0 view .LVU20
  71 001c C376     		strb	r3, [r0, #27]
  43:Core/Src/can.c ****   hcan2.Init.ReceiveFifoLocked = DISABLE;
  72              		.loc 1 43 3 is_stmt 1 view .LVU21
ARM GAS  /tmp/ccIxxzUe.s 			page 3


  73              		.loc 1 43 32 is_stmt 0 view .LVU22
  74 001e 0377     		strb	r3, [r0, #28]
  44:Core/Src/can.c ****   hcan2.Init.TransmitFifoPriority = DISABLE;
  75              		.loc 1 44 3 is_stmt 1 view .LVU23
  76              		.loc 1 44 35 is_stmt 0 view .LVU24
  77 0020 4377     		strb	r3, [r0, #29]
  45:Core/Src/can.c ****   if (HAL_CAN_Init(&hcan2) != HAL_OK)
  78              		.loc 1 45 3 is_stmt 1 view .LVU25
  79              		.loc 1 45 7 is_stmt 0 view .LVU26
  80 0022 FFF7FEFF 		bl	HAL_CAN_Init
  81              	.LVL0:
  82              		.loc 1 45 6 view .LVU27
  83 0026 00B9     		cbnz	r0, .L4
  84              	.L1:
  46:Core/Src/can.c ****   {
  47:Core/Src/can.c ****     Error_Handler();
  48:Core/Src/can.c ****   }
  49:Core/Src/can.c **** 
  50:Core/Src/can.c **** }
  85              		.loc 1 50 1 view .LVU28
  86 0028 08BD     		pop	{r3, pc}
  87              	.L4:
  47:Core/Src/can.c ****   }
  88              		.loc 1 47 5 is_stmt 1 view .LVU29
  89 002a FFF7FEFF 		bl	Error_Handler
  90              	.LVL1:
  91              		.loc 1 50 1 is_stmt 0 view .LVU30
  92 002e FBE7     		b	.L1
  93              	.L6:
  94              		.align	2
  95              	.L5:
  96 0030 00000000 		.word	hcan2
  97 0034 00680040 		.word	1073768448
  98              		.cfi_endproc
  99              	.LFE130:
 101              		.section	.text.HAL_CAN_MspInit,"ax",%progbits
 102              		.align	1
 103              		.global	HAL_CAN_MspInit
 104              		.syntax unified
 105              		.thumb
 106              		.thumb_func
 107              		.fpu fpv4-sp-d16
 109              	HAL_CAN_MspInit:
 110              	.LVL2:
 111              	.LFB131:
  51:Core/Src/can.c **** 
  52:Core/Src/can.c **** void HAL_CAN_MspInit(CAN_HandleTypeDef* canHandle)
  53:Core/Src/can.c **** {
 112              		.loc 1 53 1 is_stmt 1 view -0
 113              		.cfi_startproc
 114              		@ args = 0, pretend = 0, frame = 32
 115              		@ frame_needed = 0, uses_anonymous_args = 0
 116              		.loc 1 53 1 is_stmt 0 view .LVU32
 117 0000 00B5     		push	{lr}
 118              	.LCFI1:
 119              		.cfi_def_cfa_offset 4
 120              		.cfi_offset 14, -4
ARM GAS  /tmp/ccIxxzUe.s 			page 4


 121 0002 89B0     		sub	sp, sp, #36
 122              	.LCFI2:
 123              		.cfi_def_cfa_offset 40
  54:Core/Src/can.c **** 
  55:Core/Src/can.c ****   GPIO_InitTypeDef GPIO_InitStruct = {0};
 124              		.loc 1 55 3 is_stmt 1 view .LVU33
 125              		.loc 1 55 20 is_stmt 0 view .LVU34
 126 0004 0023     		movs	r3, #0
 127 0006 0393     		str	r3, [sp, #12]
 128 0008 0493     		str	r3, [sp, #16]
 129 000a 0593     		str	r3, [sp, #20]
 130 000c 0693     		str	r3, [sp, #24]
 131 000e 0793     		str	r3, [sp, #28]
  56:Core/Src/can.c ****   if(canHandle->Instance==CAN2)
 132              		.loc 1 56 3 is_stmt 1 view .LVU35
 133              		.loc 1 56 15 is_stmt 0 view .LVU36
 134 0010 0268     		ldr	r2, [r0]
 135              		.loc 1 56 5 view .LVU37
 136 0012 1B4B     		ldr	r3, .L11
 137 0014 9A42     		cmp	r2, r3
 138 0016 02D0     		beq	.L10
 139              	.LVL3:
 140              	.L7:
  57:Core/Src/can.c ****   {
  58:Core/Src/can.c ****   /* USER CODE BEGIN CAN2_MspInit 0 */
  59:Core/Src/can.c **** 
  60:Core/Src/can.c ****   /* USER CODE END CAN2_MspInit 0 */
  61:Core/Src/can.c ****     /* CAN2 clock enable */
  62:Core/Src/can.c ****     __HAL_RCC_CAN2_CLK_ENABLE();
  63:Core/Src/can.c ****     __HAL_RCC_CAN1_CLK_ENABLE();
  64:Core/Src/can.c **** 
  65:Core/Src/can.c ****     __HAL_RCC_GPIOB_CLK_ENABLE();
  66:Core/Src/can.c ****     /**CAN2 GPIO Configuration
  67:Core/Src/can.c ****     PB12     ------> CAN2_RX
  68:Core/Src/can.c ****     PB13     ------> CAN2_TX
  69:Core/Src/can.c ****     */
  70:Core/Src/can.c ****     GPIO_InitStruct.Pin = GPIO_PIN_12|GPIO_PIN_13;
  71:Core/Src/can.c ****     GPIO_InitStruct.Mode = GPIO_MODE_AF_PP;
  72:Core/Src/can.c ****     GPIO_InitStruct.Pull = GPIO_NOPULL;
  73:Core/Src/can.c ****     GPIO_InitStruct.Speed = GPIO_SPEED_FREQ_VERY_HIGH;
  74:Core/Src/can.c ****     GPIO_InitStruct.Alternate = GPIO_AF9_CAN2;
  75:Core/Src/can.c ****     HAL_GPIO_Init(GPIOB, &GPIO_InitStruct);
  76:Core/Src/can.c **** 
  77:Core/Src/can.c ****   /* USER CODE BEGIN CAN2_MspInit 1 */
  78:Core/Src/can.c **** 
  79:Core/Src/can.c ****   /* USER CODE END CAN2_MspInit 1 */
  80:Core/Src/can.c ****   }
  81:Core/Src/can.c **** }
 141              		.loc 1 81 1 view .LVU38
 142 0018 09B0     		add	sp, sp, #36
 143              	.LCFI3:
 144              		.cfi_remember_state
 145              		.cfi_def_cfa_offset 4
 146              		@ sp needed
 147 001a 5DF804FB 		ldr	pc, [sp], #4
 148              	.LVL4:
 149              	.L10:
ARM GAS  /tmp/ccIxxzUe.s 			page 5


 150              	.LCFI4:
 151              		.cfi_restore_state
  62:Core/Src/can.c ****     __HAL_RCC_CAN1_CLK_ENABLE();
 152              		.loc 1 62 5 is_stmt 1 view .LVU39
 153              	.LBB2:
  62:Core/Src/can.c ****     __HAL_RCC_CAN1_CLK_ENABLE();
 154              		.loc 1 62 5 view .LVU40
 155 001e 0022     		movs	r2, #0
 156 0020 0092     		str	r2, [sp]
  62:Core/Src/can.c ****     __HAL_RCC_CAN1_CLK_ENABLE();
 157              		.loc 1 62 5 view .LVU41
 158 0022 03F5E833 		add	r3, r3, #118784
 159 0026 196C     		ldr	r1, [r3, #64]
 160 0028 41F08061 		orr	r1, r1, #67108864
 161 002c 1964     		str	r1, [r3, #64]
  62:Core/Src/can.c ****     __HAL_RCC_CAN1_CLK_ENABLE();
 162              		.loc 1 62 5 view .LVU42
 163 002e 196C     		ldr	r1, [r3, #64]
 164 0030 01F08061 		and	r1, r1, #67108864
 165 0034 0091     		str	r1, [sp]
  62:Core/Src/can.c ****     __HAL_RCC_CAN1_CLK_ENABLE();
 166              		.loc 1 62 5 view .LVU43
 167 0036 0099     		ldr	r1, [sp]
 168              	.LBE2:
  62:Core/Src/can.c ****     __HAL_RCC_CAN1_CLK_ENABLE();
 169              		.loc 1 62 5 view .LVU44
  63:Core/Src/can.c **** 
 170              		.loc 1 63 5 view .LVU45
 171              	.LBB3:
  63:Core/Src/can.c **** 
 172              		.loc 1 63 5 view .LVU46
 173 0038 0192     		str	r2, [sp, #4]
  63:Core/Src/can.c **** 
 174              		.loc 1 63 5 view .LVU47
 175 003a 196C     		ldr	r1, [r3, #64]
 176 003c 41F00071 		orr	r1, r1, #33554432
 177 0040 1964     		str	r1, [r3, #64]
  63:Core/Src/can.c **** 
 178              		.loc 1 63 5 view .LVU48
 179 0042 196C     		ldr	r1, [r3, #64]
 180 0044 01F00071 		and	r1, r1, #33554432
 181 0048 0191     		str	r1, [sp, #4]
  63:Core/Src/can.c **** 
 182              		.loc 1 63 5 view .LVU49
 183 004a 0199     		ldr	r1, [sp, #4]
 184              	.LBE3:
  63:Core/Src/can.c **** 
 185              		.loc 1 63 5 view .LVU50
  65:Core/Src/can.c ****     /**CAN2 GPIO Configuration
 186              		.loc 1 65 5 view .LVU51
 187              	.LBB4:
  65:Core/Src/can.c ****     /**CAN2 GPIO Configuration
 188              		.loc 1 65 5 view .LVU52
 189 004c 0292     		str	r2, [sp, #8]
  65:Core/Src/can.c ****     /**CAN2 GPIO Configuration
 190              		.loc 1 65 5 view .LVU53
 191 004e 196B     		ldr	r1, [r3, #48]
ARM GAS  /tmp/ccIxxzUe.s 			page 6


 192 0050 41F00201 		orr	r1, r1, #2
 193 0054 1963     		str	r1, [r3, #48]
  65:Core/Src/can.c ****     /**CAN2 GPIO Configuration
 194              		.loc 1 65 5 view .LVU54
 195 0056 1B6B     		ldr	r3, [r3, #48]
 196 0058 03F00203 		and	r3, r3, #2
 197 005c 0293     		str	r3, [sp, #8]
  65:Core/Src/can.c ****     /**CAN2 GPIO Configuration
 198              		.loc 1 65 5 view .LVU55
 199 005e 029B     		ldr	r3, [sp, #8]
 200              	.LBE4:
  65:Core/Src/can.c ****     /**CAN2 GPIO Configuration
 201              		.loc 1 65 5 view .LVU56
  70:Core/Src/can.c ****     GPIO_InitStruct.Mode = GPIO_MODE_AF_PP;
 202              		.loc 1 70 5 view .LVU57
  70:Core/Src/can.c ****     GPIO_InitStruct.Mode = GPIO_MODE_AF_PP;
 203              		.loc 1 70 25 is_stmt 0 view .LVU58
 204 0060 4FF44053 		mov	r3, #12288
 205 0064 0393     		str	r3, [sp, #12]
  71:Core/Src/can.c ****     GPIO_InitStruct.Pull = GPIO_NOPULL;
 206              		.loc 1 71 5 is_stmt 1 view .LVU59
  71:Core/Src/can.c ****     GPIO_InitStruct.Pull = GPIO_NOPULL;
 207              		.loc 1 71 26 is_stmt 0 view .LVU60
 208 0066 0223     		movs	r3, #2
 209 0068 0493     		str	r3, [sp, #16]
  72:Core/Src/can.c ****     GPIO_InitStruct.Speed = GPIO_SPEED_FREQ_VERY_HIGH;
 210              		.loc 1 72 5 is_stmt 1 view .LVU61
  72:Core/Src/can.c ****     GPIO_InitStruct.Speed = GPIO_SPEED_FREQ_VERY_HIGH;
 211              		.loc 1 72 26 is_stmt 0 view .LVU62
 212 006a 0592     		str	r2, [sp, #20]
  73:Core/Src/can.c ****     GPIO_InitStruct.Alternate = GPIO_AF9_CAN2;
 213              		.loc 1 73 5 is_stmt 1 view .LVU63
  73:Core/Src/can.c ****     GPIO_InitStruct.Alternate = GPIO_AF9_CAN2;
 214              		.loc 1 73 27 is_stmt 0 view .LVU64
 215 006c 0323     		movs	r3, #3
 216 006e 0693     		str	r3, [sp, #24]
  74:Core/Src/can.c ****     HAL_GPIO_Init(GPIOB, &GPIO_InitStruct);
 217              		.loc 1 74 5 is_stmt 1 view .LVU65
  74:Core/Src/can.c ****     HAL_GPIO_Init(GPIOB, &GPIO_InitStruct);
 218              		.loc 1 74 31 is_stmt 0 view .LVU66
 219 0070 0923     		movs	r3, #9
 220 0072 0793     		str	r3, [sp, #28]
  75:Core/Src/can.c **** 
 221              		.loc 1 75 5 is_stmt 1 view .LVU67
 222 0074 03A9     		add	r1, sp, #12
 223 0076 0348     		ldr	r0, .L11+4
 224              	.LVL5:
  75:Core/Src/can.c **** 
 225              		.loc 1 75 5 is_stmt 0 view .LVU68
 226 0078 FFF7FEFF 		bl	HAL_GPIO_Init
 227              	.LVL6:
 228              		.loc 1 81 1 view .LVU69
 229 007c CCE7     		b	.L7
 230              	.L12:
 231 007e 00BF     		.align	2
 232              	.L11:
 233 0080 00680040 		.word	1073768448
ARM GAS  /tmp/ccIxxzUe.s 			page 7


 234 0084 00040240 		.word	1073873920
 235              		.cfi_endproc
 236              	.LFE131:
 238              		.section	.text.HAL_CAN_MspDeInit,"ax",%progbits
 239              		.align	1
 240              		.global	HAL_CAN_MspDeInit
 241              		.syntax unified
 242              		.thumb
 243              		.thumb_func
 244              		.fpu fpv4-sp-d16
 246              	HAL_CAN_MspDeInit:
 247              	.LVL7:
 248              	.LFB132:
  82:Core/Src/can.c **** 
  83:Core/Src/can.c **** void HAL_CAN_MspDeInit(CAN_HandleTypeDef* canHandle)
  84:Core/Src/can.c **** {
 249              		.loc 1 84 1 is_stmt 1 view -0
 250              		.cfi_startproc
 251              		@ args = 0, pretend = 0, frame = 0
 252              		@ frame_needed = 0, uses_anonymous_args = 0
 253              		.loc 1 84 1 is_stmt 0 view .LVU71
 254 0000 08B5     		push	{r3, lr}
 255              	.LCFI5:
 256              		.cfi_def_cfa_offset 8
 257              		.cfi_offset 3, -8
 258              		.cfi_offset 14, -4
  85:Core/Src/can.c **** 
  86:Core/Src/can.c ****   if(canHandle->Instance==CAN2)
 259              		.loc 1 86 3 is_stmt 1 view .LVU72
 260              		.loc 1 86 15 is_stmt 0 view .LVU73
 261 0002 0268     		ldr	r2, [r0]
 262              		.loc 1 86 5 view .LVU74
 263 0004 094B     		ldr	r3, .L17
 264 0006 9A42     		cmp	r2, r3
 265 0008 00D0     		beq	.L16
 266              	.LVL8:
 267              	.L13:
  87:Core/Src/can.c ****   {
  88:Core/Src/can.c ****   /* USER CODE BEGIN CAN2_MspDeInit 0 */
  89:Core/Src/can.c **** 
  90:Core/Src/can.c ****   /* USER CODE END CAN2_MspDeInit 0 */
  91:Core/Src/can.c ****     /* Peripheral clock disable */
  92:Core/Src/can.c ****     __HAL_RCC_CAN2_CLK_DISABLE();
  93:Core/Src/can.c ****     __HAL_RCC_CAN1_CLK_DISABLE();
  94:Core/Src/can.c **** 
  95:Core/Src/can.c ****     /**CAN2 GPIO Configuration
  96:Core/Src/can.c ****     PB12     ------> CAN2_RX
  97:Core/Src/can.c ****     PB13     ------> CAN2_TX
  98:Core/Src/can.c ****     */
  99:Core/Src/can.c ****     HAL_GPIO_DeInit(GPIOB, GPIO_PIN_12|GPIO_PIN_13);
 100:Core/Src/can.c **** 
 101:Core/Src/can.c ****   /* USER CODE BEGIN CAN2_MspDeInit 1 */
 102:Core/Src/can.c **** 
 103:Core/Src/can.c ****   /* USER CODE END CAN2_MspDeInit 1 */
 104:Core/Src/can.c ****   }
 105:Core/Src/can.c **** }
 268              		.loc 1 105 1 view .LVU75
ARM GAS  /tmp/ccIxxzUe.s 			page 8


 269 000a 08BD     		pop	{r3, pc}
 270              	.LVL9:
 271              	.L16:
  92:Core/Src/can.c ****     __HAL_RCC_CAN1_CLK_DISABLE();
 272              		.loc 1 92 5 is_stmt 1 view .LVU76
 273 000c 03F5E833 		add	r3, r3, #118784
 274 0010 1A6C     		ldr	r2, [r3, #64]
 275 0012 22F08062 		bic	r2, r2, #67108864
 276 0016 1A64     		str	r2, [r3, #64]
  93:Core/Src/can.c **** 
 277              		.loc 1 93 5 view .LVU77
 278 0018 1A6C     		ldr	r2, [r3, #64]
 279 001a 22F00072 		bic	r2, r2, #33554432
 280 001e 1A64     		str	r2, [r3, #64]
  99:Core/Src/can.c **** 
 281              		.loc 1 99 5 view .LVU78
 282 0020 4FF44051 		mov	r1, #12288
 283 0024 0248     		ldr	r0, .L17+4
 284              	.LVL10:
  99:Core/Src/can.c **** 
 285              		.loc 1 99 5 is_stmt 0 view .LVU79
 286 0026 FFF7FEFF 		bl	HAL_GPIO_DeInit
 287              	.LVL11:
 288              		.loc 1 105 1 view .LVU80
 289 002a EEE7     		b	.L13
 290              	.L18:
 291              		.align	2
 292              	.L17:
 293 002c 00680040 		.word	1073768448
 294 0030 00040240 		.word	1073873920
 295              		.cfi_endproc
 296              	.LFE132:
 298              		.comm	hcan2,40,4
 299              		.text
 300              	.Letext0:
 301              		.file 2 "/usr/arm-none-eabi/include/machine/_default_types.h"
 302              		.file 3 "/usr/arm-none-eabi/include/sys/_stdint.h"
 303              		.file 4 "Drivers/CMSIS/Include/core_cm4.h"
 304              		.file 5 "Drivers/CMSIS/Device/ST/STM32F4xx/Include/system_stm32f4xx.h"
 305              		.file 6 "Drivers/CMSIS/Device/ST/STM32F4xx/Include/stm32f446xx.h"
 306              		.file 7 "Drivers/CMSIS/Device/ST/STM32F4xx/Include/stm32f4xx.h"
 307              		.file 8 "Drivers/STM32F4xx_HAL_Driver/Inc/stm32f4xx_hal_def.h"
 308              		.file 9 "Drivers/STM32F4xx_HAL_Driver/Inc/stm32f4xx_hal_gpio.h"
 309              		.file 10 "Drivers/STM32F4xx_HAL_Driver/Inc/stm32f4xx_hal_can.h"
 310              		.file 11 "Drivers/STM32F4xx_HAL_Driver/Inc/stm32f4xx_hal.h"
 311              		.file 12 "Core/Inc/can.h"
 312              		.file 13 "Core/Inc/main.h"
ARM GAS  /tmp/ccIxxzUe.s 			page 9

