ARM GAS  /tmp/ccLaWYPJ.s 			page 1


   1              		.cpu cortex-m4
   2              		.eabi_attribute 27, 1
   3              		.eabi_attribute 28, 1
   4              		.eabi_attribute 20, 1
   5              		.eabi_attribute 21, 1
   6              		.eabi_attribute 23, 3
   7              		.eabi_attribute 24, 1
   8              		.eabi_attribute 25, 1
   9              		.eabi_attribute 26, 1
  10              		.eabi_attribute 30, 1
  11              		.eabi_attribute 34, 1
  12              		.eabi_attribute 18, 4
  13              		.file	"timers.c"
  14              		.text
  15              	.Ltext0:
  16              		.cfi_sections	.debug_frame
  17              		.section	.text.prvGetNextExpireTime,"ax",%progbits
  18              		.align	1
  19              		.arch armv7e-m
  20              		.syntax unified
  21              		.thumb
  22              		.thumb_func
  23              		.fpu fpv4-sp-d16
  25              	prvGetNextExpireTime:
  26              	.LVL0:
  27              	.LFB17:
  28              		.file 1 "Middlewares/Third_Party/FreeRTOS/Source/timers.c"
   1:Middlewares/Third_Party/FreeRTOS/Source/timers.c **** /*
   2:Middlewares/Third_Party/FreeRTOS/Source/timers.c ****  * FreeRTOS Kernel V10.2.1
   3:Middlewares/Third_Party/FreeRTOS/Source/timers.c ****  * Copyright (C) 2019 Amazon.com, Inc. or its affiliates.  All Rights Reserved.
   4:Middlewares/Third_Party/FreeRTOS/Source/timers.c ****  *
   5:Middlewares/Third_Party/FreeRTOS/Source/timers.c ****  * Permission is hereby granted, free of charge, to any person obtaining a copy of
   6:Middlewares/Third_Party/FreeRTOS/Source/timers.c ****  * this software and associated documentation files (the "Software"), to deal in
   7:Middlewares/Third_Party/FreeRTOS/Source/timers.c ****  * the Software without restriction, including without limitation the rights to
   8:Middlewares/Third_Party/FreeRTOS/Source/timers.c ****  * use, copy, modify, merge, publish, distribute, sublicense, and/or sell copies of
   9:Middlewares/Third_Party/FreeRTOS/Source/timers.c ****  * the Software, and to permit persons to whom the Software is furnished to do so,
  10:Middlewares/Third_Party/FreeRTOS/Source/timers.c ****  * subject to the following conditions:
  11:Middlewares/Third_Party/FreeRTOS/Source/timers.c ****  *
  12:Middlewares/Third_Party/FreeRTOS/Source/timers.c ****  * The above copyright notice and this permission notice shall be included in all
  13:Middlewares/Third_Party/FreeRTOS/Source/timers.c ****  * copies or substantial portions of the Software.
  14:Middlewares/Third_Party/FreeRTOS/Source/timers.c ****  *
  15:Middlewares/Third_Party/FreeRTOS/Source/timers.c ****  * THE SOFTWARE IS PROVIDED "AS IS", WITHOUT WARRANTY OF ANY KIND, EXPRESS OR
  16:Middlewares/Third_Party/FreeRTOS/Source/timers.c ****  * IMPLIED, INCLUDING BUT NOT LIMITED TO THE WARRANTIES OF MERCHANTABILITY, FITNESS
  17:Middlewares/Third_Party/FreeRTOS/Source/timers.c ****  * FOR A PARTICULAR PURPOSE AND NONINFRINGEMENT. IN NO EVENT SHALL THE AUTHORS OR
  18:Middlewares/Third_Party/FreeRTOS/Source/timers.c ****  * COPYRIGHT HOLDERS BE LIABLE FOR ANY CLAIM, DAMAGES OR OTHER LIABILITY, WHETHER
  19:Middlewares/Third_Party/FreeRTOS/Source/timers.c ****  * IN AN ACTION OF CONTRACT, TORT OR OTHERWISE, ARISING FROM, OUT OF OR IN
  20:Middlewares/Third_Party/FreeRTOS/Source/timers.c ****  * CONNECTION WITH THE SOFTWARE OR THE USE OR OTHER DEALINGS IN THE SOFTWARE.
  21:Middlewares/Third_Party/FreeRTOS/Source/timers.c ****  *
  22:Middlewares/Third_Party/FreeRTOS/Source/timers.c ****  * http://www.FreeRTOS.org
  23:Middlewares/Third_Party/FreeRTOS/Source/timers.c ****  * http://aws.amazon.com/freertos
  24:Middlewares/Third_Party/FreeRTOS/Source/timers.c ****  *
  25:Middlewares/Third_Party/FreeRTOS/Source/timers.c ****  * 1 tab == 4 spaces!
  26:Middlewares/Third_Party/FreeRTOS/Source/timers.c ****  */
  27:Middlewares/Third_Party/FreeRTOS/Source/timers.c **** 
  28:Middlewares/Third_Party/FreeRTOS/Source/timers.c **** /* Standard includes. */
  29:Middlewares/Third_Party/FreeRTOS/Source/timers.c **** #include <stdlib.h>
  30:Middlewares/Third_Party/FreeRTOS/Source/timers.c **** 
ARM GAS  /tmp/ccLaWYPJ.s 			page 2


  31:Middlewares/Third_Party/FreeRTOS/Source/timers.c **** /* Defining MPU_WRAPPERS_INCLUDED_FROM_API_FILE prevents task.h from redefining
  32:Middlewares/Third_Party/FreeRTOS/Source/timers.c **** all the API functions to use the MPU wrappers.  That should only be done when
  33:Middlewares/Third_Party/FreeRTOS/Source/timers.c **** task.h is included from an application file. */
  34:Middlewares/Third_Party/FreeRTOS/Source/timers.c **** #define MPU_WRAPPERS_INCLUDED_FROM_API_FILE
  35:Middlewares/Third_Party/FreeRTOS/Source/timers.c **** 
  36:Middlewares/Third_Party/FreeRTOS/Source/timers.c **** #include "FreeRTOS.h"
  37:Middlewares/Third_Party/FreeRTOS/Source/timers.c **** #include "task.h"
  38:Middlewares/Third_Party/FreeRTOS/Source/timers.c **** #include "queue.h"
  39:Middlewares/Third_Party/FreeRTOS/Source/timers.c **** #include "timers.h"
  40:Middlewares/Third_Party/FreeRTOS/Source/timers.c **** 
  41:Middlewares/Third_Party/FreeRTOS/Source/timers.c **** #if ( INCLUDE_xTimerPendFunctionCall == 1 ) && ( configUSE_TIMERS == 0 )
  42:Middlewares/Third_Party/FreeRTOS/Source/timers.c **** 	#error configUSE_TIMERS must be set to 1 to make the xTimerPendFunctionCall() function available.
  43:Middlewares/Third_Party/FreeRTOS/Source/timers.c **** #endif
  44:Middlewares/Third_Party/FreeRTOS/Source/timers.c **** 
  45:Middlewares/Third_Party/FreeRTOS/Source/timers.c **** /* Lint e9021, e961 and e750 are suppressed as a MISRA exception justified
  46:Middlewares/Third_Party/FreeRTOS/Source/timers.c **** because the MPU ports require MPU_WRAPPERS_INCLUDED_FROM_API_FILE to be defined
  47:Middlewares/Third_Party/FreeRTOS/Source/timers.c **** for the header files above, but not in this file, in order to generate the
  48:Middlewares/Third_Party/FreeRTOS/Source/timers.c **** correct privileged Vs unprivileged linkage and placement. */
  49:Middlewares/Third_Party/FreeRTOS/Source/timers.c **** #undef MPU_WRAPPERS_INCLUDED_FROM_API_FILE /*lint !e9021 !e961 !e750. */
  50:Middlewares/Third_Party/FreeRTOS/Source/timers.c **** 
  51:Middlewares/Third_Party/FreeRTOS/Source/timers.c **** 
  52:Middlewares/Third_Party/FreeRTOS/Source/timers.c **** /* This entire source file will be skipped if the application is not configured
  53:Middlewares/Third_Party/FreeRTOS/Source/timers.c **** to include software timer functionality.  This #if is closed at the very bottom
  54:Middlewares/Third_Party/FreeRTOS/Source/timers.c **** of this file.  If you want to include software timer functionality then ensure
  55:Middlewares/Third_Party/FreeRTOS/Source/timers.c **** configUSE_TIMERS is set to 1 in FreeRTOSConfig.h. */
  56:Middlewares/Third_Party/FreeRTOS/Source/timers.c **** #if ( configUSE_TIMERS == 1 )
  57:Middlewares/Third_Party/FreeRTOS/Source/timers.c **** 
  58:Middlewares/Third_Party/FreeRTOS/Source/timers.c **** /* Misc definitions. */
  59:Middlewares/Third_Party/FreeRTOS/Source/timers.c **** #define tmrNO_DELAY		( TickType_t ) 0U
  60:Middlewares/Third_Party/FreeRTOS/Source/timers.c **** 
  61:Middlewares/Third_Party/FreeRTOS/Source/timers.c **** /* The name assigned to the timer service task.  This can be overridden by
  62:Middlewares/Third_Party/FreeRTOS/Source/timers.c **** defining trmTIMER_SERVICE_TASK_NAME in FreeRTOSConfig.h. */
  63:Middlewares/Third_Party/FreeRTOS/Source/timers.c **** #ifndef configTIMER_SERVICE_TASK_NAME
  64:Middlewares/Third_Party/FreeRTOS/Source/timers.c **** 	#define configTIMER_SERVICE_TASK_NAME "Tmr Svc"
  65:Middlewares/Third_Party/FreeRTOS/Source/timers.c **** #endif
  66:Middlewares/Third_Party/FreeRTOS/Source/timers.c **** 
  67:Middlewares/Third_Party/FreeRTOS/Source/timers.c **** /* Bit definitions used in the ucStatus member of a timer structure. */
  68:Middlewares/Third_Party/FreeRTOS/Source/timers.c **** #define tmrSTATUS_IS_ACTIVE					( ( uint8_t ) 0x01 )
  69:Middlewares/Third_Party/FreeRTOS/Source/timers.c **** #define tmrSTATUS_IS_STATICALLY_ALLOCATED	( ( uint8_t ) 0x02 )
  70:Middlewares/Third_Party/FreeRTOS/Source/timers.c **** #define tmrSTATUS_IS_AUTORELOAD				( ( uint8_t ) 0x04 )
  71:Middlewares/Third_Party/FreeRTOS/Source/timers.c **** 
  72:Middlewares/Third_Party/FreeRTOS/Source/timers.c **** /* The definition of the timers themselves. */
  73:Middlewares/Third_Party/FreeRTOS/Source/timers.c **** typedef struct tmrTimerControl /* The old naming convention is used to prevent breaking kernel awar
  74:Middlewares/Third_Party/FreeRTOS/Source/timers.c **** {
  75:Middlewares/Third_Party/FreeRTOS/Source/timers.c **** 	const char				*pcTimerName;		/*<< Text name.  This is not used by the kernel, it is included simpl
  76:Middlewares/Third_Party/FreeRTOS/Source/timers.c **** 	ListItem_t				xTimerListItem;		/*<< Standard linked list item as used by all kernel features for e
  77:Middlewares/Third_Party/FreeRTOS/Source/timers.c **** 	TickType_t				xTimerPeriodInTicks;/*<< How quickly and often the timer expires. */
  78:Middlewares/Third_Party/FreeRTOS/Source/timers.c **** 	void 					*pvTimerID;			/*<< An ID to identify the timer.  This allows the timer to be identified 
  79:Middlewares/Third_Party/FreeRTOS/Source/timers.c **** 	TimerCallbackFunction_t	pxCallbackFunction;	/*<< The function that will be called when the timer e
  80:Middlewares/Third_Party/FreeRTOS/Source/timers.c **** 	#if( configUSE_TRACE_FACILITY == 1 )
  81:Middlewares/Third_Party/FreeRTOS/Source/timers.c **** 		UBaseType_t			uxTimerNumber;		/*<< An ID assigned by trace tools such as FreeRTOS+Trace */
  82:Middlewares/Third_Party/FreeRTOS/Source/timers.c **** 	#endif
  83:Middlewares/Third_Party/FreeRTOS/Source/timers.c **** 	uint8_t 				ucStatus;			/*<< Holds bits to say if the timer was statically allocated or not, and i
  84:Middlewares/Third_Party/FreeRTOS/Source/timers.c **** } xTIMER;
  85:Middlewares/Third_Party/FreeRTOS/Source/timers.c **** 
  86:Middlewares/Third_Party/FreeRTOS/Source/timers.c **** /* The old xTIMER name is maintained above then typedefed to the new Timer_t
  87:Middlewares/Third_Party/FreeRTOS/Source/timers.c **** name below to enable the use of older kernel aware debuggers. */
ARM GAS  /tmp/ccLaWYPJ.s 			page 3


  88:Middlewares/Third_Party/FreeRTOS/Source/timers.c **** typedef xTIMER Timer_t;
  89:Middlewares/Third_Party/FreeRTOS/Source/timers.c **** 
  90:Middlewares/Third_Party/FreeRTOS/Source/timers.c **** /* The definition of messages that can be sent and received on the timer queue.
  91:Middlewares/Third_Party/FreeRTOS/Source/timers.c **** Two types of message can be queued - messages that manipulate a software timer,
  92:Middlewares/Third_Party/FreeRTOS/Source/timers.c **** and messages that request the execution of a non-timer related callback.  The
  93:Middlewares/Third_Party/FreeRTOS/Source/timers.c **** two message types are defined in two separate structures, xTimerParametersType
  94:Middlewares/Third_Party/FreeRTOS/Source/timers.c **** and xCallbackParametersType respectively. */
  95:Middlewares/Third_Party/FreeRTOS/Source/timers.c **** typedef struct tmrTimerParameters
  96:Middlewares/Third_Party/FreeRTOS/Source/timers.c **** {
  97:Middlewares/Third_Party/FreeRTOS/Source/timers.c **** 	TickType_t			xMessageValue;		/*<< An optional value used by a subset of commands, for example, whe
  98:Middlewares/Third_Party/FreeRTOS/Source/timers.c **** 	Timer_t *			pxTimer;			/*<< The timer to which the command will be applied. */
  99:Middlewares/Third_Party/FreeRTOS/Source/timers.c **** } TimerParameter_t;
 100:Middlewares/Third_Party/FreeRTOS/Source/timers.c **** 
 101:Middlewares/Third_Party/FreeRTOS/Source/timers.c **** 
 102:Middlewares/Third_Party/FreeRTOS/Source/timers.c **** typedef struct tmrCallbackParameters
 103:Middlewares/Third_Party/FreeRTOS/Source/timers.c **** {
 104:Middlewares/Third_Party/FreeRTOS/Source/timers.c **** 	PendedFunction_t	pxCallbackFunction;	/* << The callback function to execute. */
 105:Middlewares/Third_Party/FreeRTOS/Source/timers.c **** 	void *pvParameter1;						/* << The value that will be used as the callback functions first paramet
 106:Middlewares/Third_Party/FreeRTOS/Source/timers.c **** 	uint32_t ulParameter2;					/* << The value that will be used as the callback functions second para
 107:Middlewares/Third_Party/FreeRTOS/Source/timers.c **** } CallbackParameters_t;
 108:Middlewares/Third_Party/FreeRTOS/Source/timers.c **** 
 109:Middlewares/Third_Party/FreeRTOS/Source/timers.c **** /* The structure that contains the two message types, along with an identifier
 110:Middlewares/Third_Party/FreeRTOS/Source/timers.c **** that is used to determine which message type is valid. */
 111:Middlewares/Third_Party/FreeRTOS/Source/timers.c **** typedef struct tmrTimerQueueMessage
 112:Middlewares/Third_Party/FreeRTOS/Source/timers.c **** {
 113:Middlewares/Third_Party/FreeRTOS/Source/timers.c **** 	BaseType_t			xMessageID;			/*<< The command being sent to the timer service task. */
 114:Middlewares/Third_Party/FreeRTOS/Source/timers.c **** 	union
 115:Middlewares/Third_Party/FreeRTOS/Source/timers.c **** 	{
 116:Middlewares/Third_Party/FreeRTOS/Source/timers.c **** 		TimerParameter_t xTimerParameters;
 117:Middlewares/Third_Party/FreeRTOS/Source/timers.c **** 
 118:Middlewares/Third_Party/FreeRTOS/Source/timers.c **** 		/* Don't include xCallbackParameters if it is not going to be used as
 119:Middlewares/Third_Party/FreeRTOS/Source/timers.c **** 		it makes the structure (and therefore the timer queue) larger. */
 120:Middlewares/Third_Party/FreeRTOS/Source/timers.c **** 		#if ( INCLUDE_xTimerPendFunctionCall == 1 )
 121:Middlewares/Third_Party/FreeRTOS/Source/timers.c **** 			CallbackParameters_t xCallbackParameters;
 122:Middlewares/Third_Party/FreeRTOS/Source/timers.c **** 		#endif /* INCLUDE_xTimerPendFunctionCall */
 123:Middlewares/Third_Party/FreeRTOS/Source/timers.c **** 	} u;
 124:Middlewares/Third_Party/FreeRTOS/Source/timers.c **** } DaemonTaskMessage_t;
 125:Middlewares/Third_Party/FreeRTOS/Source/timers.c **** 
 126:Middlewares/Third_Party/FreeRTOS/Source/timers.c **** /*lint -save -e956 A manual analysis and inspection has been used to determine
 127:Middlewares/Third_Party/FreeRTOS/Source/timers.c **** which static variables must be declared volatile. */
 128:Middlewares/Third_Party/FreeRTOS/Source/timers.c **** 
 129:Middlewares/Third_Party/FreeRTOS/Source/timers.c **** /* The list in which active timers are stored.  Timers are referenced in expire
 130:Middlewares/Third_Party/FreeRTOS/Source/timers.c **** time order, with the nearest expiry time at the front of the list.  Only the
 131:Middlewares/Third_Party/FreeRTOS/Source/timers.c **** timer service task is allowed to access these lists.
 132:Middlewares/Third_Party/FreeRTOS/Source/timers.c **** xActiveTimerList1 and xActiveTimerList2 could be at function scope but that
 133:Middlewares/Third_Party/FreeRTOS/Source/timers.c **** breaks some kernel aware debuggers, and debuggers that reply on removing the
 134:Middlewares/Third_Party/FreeRTOS/Source/timers.c **** static qualifier. */
 135:Middlewares/Third_Party/FreeRTOS/Source/timers.c **** PRIVILEGED_DATA static List_t xActiveTimerList1 = { 0 };
 136:Middlewares/Third_Party/FreeRTOS/Source/timers.c **** PRIVILEGED_DATA static List_t xActiveTimerList2 = { 0 };
 137:Middlewares/Third_Party/FreeRTOS/Source/timers.c **** PRIVILEGED_DATA static List_t *pxCurrentTimerList = NULL;
 138:Middlewares/Third_Party/FreeRTOS/Source/timers.c **** PRIVILEGED_DATA static List_t *pxOverflowTimerList = NULL;
 139:Middlewares/Third_Party/FreeRTOS/Source/timers.c **** 
 140:Middlewares/Third_Party/FreeRTOS/Source/timers.c **** /* A queue that is used to send commands to the timer service task. */
 141:Middlewares/Third_Party/FreeRTOS/Source/timers.c **** PRIVILEGED_DATA static QueueHandle_t xTimerQueue = NULL;
 142:Middlewares/Third_Party/FreeRTOS/Source/timers.c **** PRIVILEGED_DATA static TaskHandle_t xTimerTaskHandle = NULL;
 143:Middlewares/Third_Party/FreeRTOS/Source/timers.c **** 
 144:Middlewares/Third_Party/FreeRTOS/Source/timers.c **** /*lint -restore */
ARM GAS  /tmp/ccLaWYPJ.s 			page 4


 145:Middlewares/Third_Party/FreeRTOS/Source/timers.c **** 
 146:Middlewares/Third_Party/FreeRTOS/Source/timers.c **** /*-----------------------------------------------------------*/
 147:Middlewares/Third_Party/FreeRTOS/Source/timers.c **** 
 148:Middlewares/Third_Party/FreeRTOS/Source/timers.c **** #if( configSUPPORT_STATIC_ALLOCATION == 1 )
 149:Middlewares/Third_Party/FreeRTOS/Source/timers.c **** 
 150:Middlewares/Third_Party/FreeRTOS/Source/timers.c **** 	/* If static allocation is supported then the application must provide the
 151:Middlewares/Third_Party/FreeRTOS/Source/timers.c **** 	following callback function - which enables the application to optionally
 152:Middlewares/Third_Party/FreeRTOS/Source/timers.c **** 	provide the memory that will be used by the timer task as the task's stack
 153:Middlewares/Third_Party/FreeRTOS/Source/timers.c **** 	and TCB. */
 154:Middlewares/Third_Party/FreeRTOS/Source/timers.c **** 	extern void vApplicationGetTimerTaskMemory( StaticTask_t **ppxTimerTaskTCBBuffer, StackType_t **pp
 155:Middlewares/Third_Party/FreeRTOS/Source/timers.c **** 
 156:Middlewares/Third_Party/FreeRTOS/Source/timers.c **** #endif
 157:Middlewares/Third_Party/FreeRTOS/Source/timers.c **** 
 158:Middlewares/Third_Party/FreeRTOS/Source/timers.c **** /*
 159:Middlewares/Third_Party/FreeRTOS/Source/timers.c ****  * Initialise the infrastructure used by the timer service task if it has not
 160:Middlewares/Third_Party/FreeRTOS/Source/timers.c ****  * been initialised already.
 161:Middlewares/Third_Party/FreeRTOS/Source/timers.c ****  */
 162:Middlewares/Third_Party/FreeRTOS/Source/timers.c **** static void prvCheckForValidListAndQueue( void ) PRIVILEGED_FUNCTION;
 163:Middlewares/Third_Party/FreeRTOS/Source/timers.c **** 
 164:Middlewares/Third_Party/FreeRTOS/Source/timers.c **** /*
 165:Middlewares/Third_Party/FreeRTOS/Source/timers.c ****  * The timer service task (daemon).  Timer functionality is controlled by this
 166:Middlewares/Third_Party/FreeRTOS/Source/timers.c ****  * task.  Other tasks communicate with the timer service task using the
 167:Middlewares/Third_Party/FreeRTOS/Source/timers.c ****  * xTimerQueue queue.
 168:Middlewares/Third_Party/FreeRTOS/Source/timers.c ****  */
 169:Middlewares/Third_Party/FreeRTOS/Source/timers.c **** static portTASK_FUNCTION_PROTO( prvTimerTask, pvParameters ) PRIVILEGED_FUNCTION;
 170:Middlewares/Third_Party/FreeRTOS/Source/timers.c **** 
 171:Middlewares/Third_Party/FreeRTOS/Source/timers.c **** /*
 172:Middlewares/Third_Party/FreeRTOS/Source/timers.c ****  * Called by the timer service task to interpret and process a command it
 173:Middlewares/Third_Party/FreeRTOS/Source/timers.c ****  * received on the timer queue.
 174:Middlewares/Third_Party/FreeRTOS/Source/timers.c ****  */
 175:Middlewares/Third_Party/FreeRTOS/Source/timers.c **** static void prvProcessReceivedCommands( void ) PRIVILEGED_FUNCTION;
 176:Middlewares/Third_Party/FreeRTOS/Source/timers.c **** 
 177:Middlewares/Third_Party/FreeRTOS/Source/timers.c **** /*
 178:Middlewares/Third_Party/FreeRTOS/Source/timers.c ****  * Insert the timer into either xActiveTimerList1, or xActiveTimerList2,
 179:Middlewares/Third_Party/FreeRTOS/Source/timers.c ****  * depending on if the expire time causes a timer counter overflow.
 180:Middlewares/Third_Party/FreeRTOS/Source/timers.c ****  */
 181:Middlewares/Third_Party/FreeRTOS/Source/timers.c **** static BaseType_t prvInsertTimerInActiveList( Timer_t * const pxTimer, const TickType_t xNextExpiry
 182:Middlewares/Third_Party/FreeRTOS/Source/timers.c **** 
 183:Middlewares/Third_Party/FreeRTOS/Source/timers.c **** /*
 184:Middlewares/Third_Party/FreeRTOS/Source/timers.c ****  * An active timer has reached its expire time.  Reload the timer if it is an
 185:Middlewares/Third_Party/FreeRTOS/Source/timers.c ****  * auto reload timer, then call its callback.
 186:Middlewares/Third_Party/FreeRTOS/Source/timers.c ****  */
 187:Middlewares/Third_Party/FreeRTOS/Source/timers.c **** static void prvProcessExpiredTimer( const TickType_t xNextExpireTime, const TickType_t xTimeNow ) P
 188:Middlewares/Third_Party/FreeRTOS/Source/timers.c **** 
 189:Middlewares/Third_Party/FreeRTOS/Source/timers.c **** /*
 190:Middlewares/Third_Party/FreeRTOS/Source/timers.c ****  * The tick count has overflowed.  Switch the timer lists after ensuring the
 191:Middlewares/Third_Party/FreeRTOS/Source/timers.c ****  * current timer list does not still reference some timers.
 192:Middlewares/Third_Party/FreeRTOS/Source/timers.c ****  */
 193:Middlewares/Third_Party/FreeRTOS/Source/timers.c **** static void prvSwitchTimerLists( void ) PRIVILEGED_FUNCTION;
 194:Middlewares/Third_Party/FreeRTOS/Source/timers.c **** 
 195:Middlewares/Third_Party/FreeRTOS/Source/timers.c **** /*
 196:Middlewares/Third_Party/FreeRTOS/Source/timers.c ****  * Obtain the current tick count, setting *pxTimerListsWereSwitched to pdTRUE
 197:Middlewares/Third_Party/FreeRTOS/Source/timers.c ****  * if a tick count overflow occurred since prvSampleTimeNow() was last called.
 198:Middlewares/Third_Party/FreeRTOS/Source/timers.c ****  */
 199:Middlewares/Third_Party/FreeRTOS/Source/timers.c **** static TickType_t prvSampleTimeNow( BaseType_t * const pxTimerListsWereSwitched ) PRIVILEGED_FUNCTI
 200:Middlewares/Third_Party/FreeRTOS/Source/timers.c **** 
 201:Middlewares/Third_Party/FreeRTOS/Source/timers.c **** /*
ARM GAS  /tmp/ccLaWYPJ.s 			page 5


 202:Middlewares/Third_Party/FreeRTOS/Source/timers.c ****  * If the timer list contains any active timers then return the expire time of
 203:Middlewares/Third_Party/FreeRTOS/Source/timers.c ****  * the timer that will expire first and set *pxListWasEmpty to false.  If the
 204:Middlewares/Third_Party/FreeRTOS/Source/timers.c ****  * timer list does not contain any timers then return 0 and set *pxListWasEmpty
 205:Middlewares/Third_Party/FreeRTOS/Source/timers.c ****  * to pdTRUE.
 206:Middlewares/Third_Party/FreeRTOS/Source/timers.c ****  */
 207:Middlewares/Third_Party/FreeRTOS/Source/timers.c **** static TickType_t prvGetNextExpireTime( BaseType_t * const pxListWasEmpty ) PRIVILEGED_FUNCTION;
 208:Middlewares/Third_Party/FreeRTOS/Source/timers.c **** 
 209:Middlewares/Third_Party/FreeRTOS/Source/timers.c **** /*
 210:Middlewares/Third_Party/FreeRTOS/Source/timers.c ****  * If a timer has expired, process it.  Otherwise, block the timer service task
 211:Middlewares/Third_Party/FreeRTOS/Source/timers.c ****  * until either a timer does expire or a command is received.
 212:Middlewares/Third_Party/FreeRTOS/Source/timers.c ****  */
 213:Middlewares/Third_Party/FreeRTOS/Source/timers.c **** static void prvProcessTimerOrBlockTask( const TickType_t xNextExpireTime, BaseType_t xListWasEmpty 
 214:Middlewares/Third_Party/FreeRTOS/Source/timers.c **** 
 215:Middlewares/Third_Party/FreeRTOS/Source/timers.c **** /*
 216:Middlewares/Third_Party/FreeRTOS/Source/timers.c ****  * Called after a Timer_t structure has been allocated either statically or
 217:Middlewares/Third_Party/FreeRTOS/Source/timers.c ****  * dynamically to fill in the structure's members.
 218:Middlewares/Third_Party/FreeRTOS/Source/timers.c ****  */
 219:Middlewares/Third_Party/FreeRTOS/Source/timers.c **** static void prvInitialiseNewTimer(	const char * const pcTimerName,			/*lint !e971 Unqualified char 
 220:Middlewares/Third_Party/FreeRTOS/Source/timers.c **** 									const TickType_t xTimerPeriodInTicks,
 221:Middlewares/Third_Party/FreeRTOS/Source/timers.c **** 									const UBaseType_t uxAutoReload,
 222:Middlewares/Third_Party/FreeRTOS/Source/timers.c **** 									void * const pvTimerID,
 223:Middlewares/Third_Party/FreeRTOS/Source/timers.c **** 									TimerCallbackFunction_t pxCallbackFunction,
 224:Middlewares/Third_Party/FreeRTOS/Source/timers.c **** 									Timer_t *pxNewTimer ) PRIVILEGED_FUNCTION;
 225:Middlewares/Third_Party/FreeRTOS/Source/timers.c **** /*-----------------------------------------------------------*/
 226:Middlewares/Third_Party/FreeRTOS/Source/timers.c **** 
 227:Middlewares/Third_Party/FreeRTOS/Source/timers.c **** BaseType_t xTimerCreateTimerTask( void )
 228:Middlewares/Third_Party/FreeRTOS/Source/timers.c **** {
 229:Middlewares/Third_Party/FreeRTOS/Source/timers.c **** BaseType_t xReturn = pdFAIL;
 230:Middlewares/Third_Party/FreeRTOS/Source/timers.c **** 
 231:Middlewares/Third_Party/FreeRTOS/Source/timers.c **** 	/* This function is called when the scheduler is started if
 232:Middlewares/Third_Party/FreeRTOS/Source/timers.c **** 	configUSE_TIMERS is set to 1.  Check that the infrastructure used by the
 233:Middlewares/Third_Party/FreeRTOS/Source/timers.c **** 	timer service task has been created/initialised.  If timers have already
 234:Middlewares/Third_Party/FreeRTOS/Source/timers.c **** 	been created then the initialisation will already have been performed. */
 235:Middlewares/Third_Party/FreeRTOS/Source/timers.c **** 	prvCheckForValidListAndQueue();
 236:Middlewares/Third_Party/FreeRTOS/Source/timers.c **** 
 237:Middlewares/Third_Party/FreeRTOS/Source/timers.c **** 	if( xTimerQueue != NULL )
 238:Middlewares/Third_Party/FreeRTOS/Source/timers.c **** 	{
 239:Middlewares/Third_Party/FreeRTOS/Source/timers.c **** 		#if( configSUPPORT_STATIC_ALLOCATION == 1 )
 240:Middlewares/Third_Party/FreeRTOS/Source/timers.c **** 		{
 241:Middlewares/Third_Party/FreeRTOS/Source/timers.c **** 			StaticTask_t *pxTimerTaskTCBBuffer = NULL;
 242:Middlewares/Third_Party/FreeRTOS/Source/timers.c **** 			StackType_t *pxTimerTaskStackBuffer = NULL;
 243:Middlewares/Third_Party/FreeRTOS/Source/timers.c **** 			uint32_t ulTimerTaskStackSize;
 244:Middlewares/Third_Party/FreeRTOS/Source/timers.c **** 
 245:Middlewares/Third_Party/FreeRTOS/Source/timers.c **** 			vApplicationGetTimerTaskMemory( &pxTimerTaskTCBBuffer, &pxTimerTaskStackBuffer, &ulTimerTaskStac
 246:Middlewares/Third_Party/FreeRTOS/Source/timers.c **** 			xTimerTaskHandle = xTaskCreateStatic(	prvTimerTask,
 247:Middlewares/Third_Party/FreeRTOS/Source/timers.c **** 													configTIMER_SERVICE_TASK_NAME,
 248:Middlewares/Third_Party/FreeRTOS/Source/timers.c **** 													ulTimerTaskStackSize,
 249:Middlewares/Third_Party/FreeRTOS/Source/timers.c **** 													NULL,
 250:Middlewares/Third_Party/FreeRTOS/Source/timers.c **** 													( ( UBaseType_t ) configTIMER_TASK_PRIORITY ) | portPRIVILEGE_BIT,
 251:Middlewares/Third_Party/FreeRTOS/Source/timers.c **** 													pxTimerTaskStackBuffer,
 252:Middlewares/Third_Party/FreeRTOS/Source/timers.c **** 													pxTimerTaskTCBBuffer );
 253:Middlewares/Third_Party/FreeRTOS/Source/timers.c **** 
 254:Middlewares/Third_Party/FreeRTOS/Source/timers.c **** 			if( xTimerTaskHandle != NULL )
 255:Middlewares/Third_Party/FreeRTOS/Source/timers.c **** 			{
 256:Middlewares/Third_Party/FreeRTOS/Source/timers.c **** 				xReturn = pdPASS;
 257:Middlewares/Third_Party/FreeRTOS/Source/timers.c **** 			}
 258:Middlewares/Third_Party/FreeRTOS/Source/timers.c **** 		}
ARM GAS  /tmp/ccLaWYPJ.s 			page 6


 259:Middlewares/Third_Party/FreeRTOS/Source/timers.c **** 		#else
 260:Middlewares/Third_Party/FreeRTOS/Source/timers.c **** 		{
 261:Middlewares/Third_Party/FreeRTOS/Source/timers.c **** 			xReturn = xTaskCreate(	prvTimerTask,
 262:Middlewares/Third_Party/FreeRTOS/Source/timers.c **** 									configTIMER_SERVICE_TASK_NAME,
 263:Middlewares/Third_Party/FreeRTOS/Source/timers.c **** 									configTIMER_TASK_STACK_DEPTH,
 264:Middlewares/Third_Party/FreeRTOS/Source/timers.c **** 									NULL,
 265:Middlewares/Third_Party/FreeRTOS/Source/timers.c **** 									( ( UBaseType_t ) configTIMER_TASK_PRIORITY ) | portPRIVILEGE_BIT,
 266:Middlewares/Third_Party/FreeRTOS/Source/timers.c **** 									&xTimerTaskHandle );
 267:Middlewares/Third_Party/FreeRTOS/Source/timers.c **** 		}
 268:Middlewares/Third_Party/FreeRTOS/Source/timers.c **** 		#endif /* configSUPPORT_STATIC_ALLOCATION */
 269:Middlewares/Third_Party/FreeRTOS/Source/timers.c **** 	}
 270:Middlewares/Third_Party/FreeRTOS/Source/timers.c **** 	else
 271:Middlewares/Third_Party/FreeRTOS/Source/timers.c **** 	{
 272:Middlewares/Third_Party/FreeRTOS/Source/timers.c **** 		mtCOVERAGE_TEST_MARKER();
 273:Middlewares/Third_Party/FreeRTOS/Source/timers.c **** 	}
 274:Middlewares/Third_Party/FreeRTOS/Source/timers.c **** 
 275:Middlewares/Third_Party/FreeRTOS/Source/timers.c **** 	configASSERT( xReturn );
 276:Middlewares/Third_Party/FreeRTOS/Source/timers.c **** 	return xReturn;
 277:Middlewares/Third_Party/FreeRTOS/Source/timers.c **** }
 278:Middlewares/Third_Party/FreeRTOS/Source/timers.c **** /*-----------------------------------------------------------*/
 279:Middlewares/Third_Party/FreeRTOS/Source/timers.c **** 
 280:Middlewares/Third_Party/FreeRTOS/Source/timers.c **** #if( configSUPPORT_DYNAMIC_ALLOCATION == 1 )
 281:Middlewares/Third_Party/FreeRTOS/Source/timers.c **** 
 282:Middlewares/Third_Party/FreeRTOS/Source/timers.c **** 	TimerHandle_t xTimerCreate(	const char * const pcTimerName,			/*lint !e971 Unqualified char types 
 283:Middlewares/Third_Party/FreeRTOS/Source/timers.c **** 								const TickType_t xTimerPeriodInTicks,
 284:Middlewares/Third_Party/FreeRTOS/Source/timers.c **** 								const UBaseType_t uxAutoReload,
 285:Middlewares/Third_Party/FreeRTOS/Source/timers.c **** 								void * const pvTimerID,
 286:Middlewares/Third_Party/FreeRTOS/Source/timers.c **** 								TimerCallbackFunction_t pxCallbackFunction )
 287:Middlewares/Third_Party/FreeRTOS/Source/timers.c **** 	{
 288:Middlewares/Third_Party/FreeRTOS/Source/timers.c **** 	Timer_t *pxNewTimer;
 289:Middlewares/Third_Party/FreeRTOS/Source/timers.c **** 
 290:Middlewares/Third_Party/FreeRTOS/Source/timers.c **** 		pxNewTimer = ( Timer_t * ) pvPortMalloc( sizeof( Timer_t ) ); /*lint !e9087 !e9079 All values ret
 291:Middlewares/Third_Party/FreeRTOS/Source/timers.c **** 
 292:Middlewares/Third_Party/FreeRTOS/Source/timers.c **** 		if( pxNewTimer != NULL )
 293:Middlewares/Third_Party/FreeRTOS/Source/timers.c **** 		{
 294:Middlewares/Third_Party/FreeRTOS/Source/timers.c **** 			/* Status is thus far zero as the timer is not created statically
 295:Middlewares/Third_Party/FreeRTOS/Source/timers.c **** 			and has not been started.  The autoreload bit may get set in
 296:Middlewares/Third_Party/FreeRTOS/Source/timers.c **** 			prvInitialiseNewTimer. */
 297:Middlewares/Third_Party/FreeRTOS/Source/timers.c **** 			pxNewTimer->ucStatus = 0x00;
 298:Middlewares/Third_Party/FreeRTOS/Source/timers.c **** 			prvInitialiseNewTimer( pcTimerName, xTimerPeriodInTicks, uxAutoReload, pvTimerID, pxCallbackFunc
 299:Middlewares/Third_Party/FreeRTOS/Source/timers.c **** 		}
 300:Middlewares/Third_Party/FreeRTOS/Source/timers.c **** 
 301:Middlewares/Third_Party/FreeRTOS/Source/timers.c **** 		return pxNewTimer;
 302:Middlewares/Third_Party/FreeRTOS/Source/timers.c **** 	}
 303:Middlewares/Third_Party/FreeRTOS/Source/timers.c **** 
 304:Middlewares/Third_Party/FreeRTOS/Source/timers.c **** #endif /* configSUPPORT_DYNAMIC_ALLOCATION */
 305:Middlewares/Third_Party/FreeRTOS/Source/timers.c **** /*-----------------------------------------------------------*/
 306:Middlewares/Third_Party/FreeRTOS/Source/timers.c **** 
 307:Middlewares/Third_Party/FreeRTOS/Source/timers.c **** #if( configSUPPORT_STATIC_ALLOCATION == 1 )
 308:Middlewares/Third_Party/FreeRTOS/Source/timers.c **** 
 309:Middlewares/Third_Party/FreeRTOS/Source/timers.c **** 	TimerHandle_t xTimerCreateStatic(	const char * const pcTimerName,		/*lint !e971 Unqualified char t
 310:Middlewares/Third_Party/FreeRTOS/Source/timers.c **** 										const TickType_t xTimerPeriodInTicks,
 311:Middlewares/Third_Party/FreeRTOS/Source/timers.c **** 										const UBaseType_t uxAutoReload,
 312:Middlewares/Third_Party/FreeRTOS/Source/timers.c **** 										void * const pvTimerID,
 313:Middlewares/Third_Party/FreeRTOS/Source/timers.c **** 										TimerCallbackFunction_t pxCallbackFunction,
 314:Middlewares/Third_Party/FreeRTOS/Source/timers.c **** 										StaticTimer_t *pxTimerBuffer )
 315:Middlewares/Third_Party/FreeRTOS/Source/timers.c **** 	{
ARM GAS  /tmp/ccLaWYPJ.s 			page 7


 316:Middlewares/Third_Party/FreeRTOS/Source/timers.c **** 	Timer_t *pxNewTimer;
 317:Middlewares/Third_Party/FreeRTOS/Source/timers.c **** 
 318:Middlewares/Third_Party/FreeRTOS/Source/timers.c **** 		#if( configASSERT_DEFINED == 1 )
 319:Middlewares/Third_Party/FreeRTOS/Source/timers.c **** 		{
 320:Middlewares/Third_Party/FreeRTOS/Source/timers.c **** 			/* Sanity check that the size of the structure used to declare a
 321:Middlewares/Third_Party/FreeRTOS/Source/timers.c **** 			variable of type StaticTimer_t equals the size of the real timer
 322:Middlewares/Third_Party/FreeRTOS/Source/timers.c **** 			structure. */
 323:Middlewares/Third_Party/FreeRTOS/Source/timers.c **** 			volatile size_t xSize = sizeof( StaticTimer_t );
 324:Middlewares/Third_Party/FreeRTOS/Source/timers.c **** 			configASSERT( xSize == sizeof( Timer_t ) );
 325:Middlewares/Third_Party/FreeRTOS/Source/timers.c **** 			( void ) xSize; /* Keeps lint quiet when configASSERT() is not defined. */
 326:Middlewares/Third_Party/FreeRTOS/Source/timers.c **** 		}
 327:Middlewares/Third_Party/FreeRTOS/Source/timers.c **** 		#endif /* configASSERT_DEFINED */
 328:Middlewares/Third_Party/FreeRTOS/Source/timers.c **** 
 329:Middlewares/Third_Party/FreeRTOS/Source/timers.c **** 		/* A pointer to a StaticTimer_t structure MUST be provided, use it. */
 330:Middlewares/Third_Party/FreeRTOS/Source/timers.c **** 		configASSERT( pxTimerBuffer );
 331:Middlewares/Third_Party/FreeRTOS/Source/timers.c **** 		pxNewTimer = ( Timer_t * ) pxTimerBuffer; /*lint !e740 !e9087 StaticTimer_t is a pointer to a Tim
 332:Middlewares/Third_Party/FreeRTOS/Source/timers.c **** 
 333:Middlewares/Third_Party/FreeRTOS/Source/timers.c **** 		if( pxNewTimer != NULL )
 334:Middlewares/Third_Party/FreeRTOS/Source/timers.c **** 		{
 335:Middlewares/Third_Party/FreeRTOS/Source/timers.c **** 			/* Timers can be created statically or dynamically so note this
 336:Middlewares/Third_Party/FreeRTOS/Source/timers.c **** 			timer was created statically in case it is later deleted.  The
 337:Middlewares/Third_Party/FreeRTOS/Source/timers.c **** 			autoreload bit may get set in prvInitialiseNewTimer(). */
 338:Middlewares/Third_Party/FreeRTOS/Source/timers.c **** 			pxNewTimer->ucStatus = tmrSTATUS_IS_STATICALLY_ALLOCATED;
 339:Middlewares/Third_Party/FreeRTOS/Source/timers.c **** 
 340:Middlewares/Third_Party/FreeRTOS/Source/timers.c **** 			prvInitialiseNewTimer( pcTimerName, xTimerPeriodInTicks, uxAutoReload, pvTimerID, pxCallbackFunc
 341:Middlewares/Third_Party/FreeRTOS/Source/timers.c **** 		}
 342:Middlewares/Third_Party/FreeRTOS/Source/timers.c **** 
 343:Middlewares/Third_Party/FreeRTOS/Source/timers.c **** 		return pxNewTimer;
 344:Middlewares/Third_Party/FreeRTOS/Source/timers.c **** 	}
 345:Middlewares/Third_Party/FreeRTOS/Source/timers.c **** 
 346:Middlewares/Third_Party/FreeRTOS/Source/timers.c **** #endif /* configSUPPORT_STATIC_ALLOCATION */
 347:Middlewares/Third_Party/FreeRTOS/Source/timers.c **** /*-----------------------------------------------------------*/
 348:Middlewares/Third_Party/FreeRTOS/Source/timers.c **** 
 349:Middlewares/Third_Party/FreeRTOS/Source/timers.c **** static void prvInitialiseNewTimer(	const char * const pcTimerName,			/*lint !e971 Unqualified char 
 350:Middlewares/Third_Party/FreeRTOS/Source/timers.c **** 									const TickType_t xTimerPeriodInTicks,
 351:Middlewares/Third_Party/FreeRTOS/Source/timers.c **** 									const UBaseType_t uxAutoReload,
 352:Middlewares/Third_Party/FreeRTOS/Source/timers.c **** 									void * const pvTimerID,
 353:Middlewares/Third_Party/FreeRTOS/Source/timers.c **** 									TimerCallbackFunction_t pxCallbackFunction,
 354:Middlewares/Third_Party/FreeRTOS/Source/timers.c **** 									Timer_t *pxNewTimer )
 355:Middlewares/Third_Party/FreeRTOS/Source/timers.c **** {
 356:Middlewares/Third_Party/FreeRTOS/Source/timers.c **** 	/* 0 is not a valid value for xTimerPeriodInTicks. */
 357:Middlewares/Third_Party/FreeRTOS/Source/timers.c **** 	configASSERT( ( xTimerPeriodInTicks > 0 ) );
 358:Middlewares/Third_Party/FreeRTOS/Source/timers.c **** 
 359:Middlewares/Third_Party/FreeRTOS/Source/timers.c **** 	if( pxNewTimer != NULL )
 360:Middlewares/Third_Party/FreeRTOS/Source/timers.c **** 	{
 361:Middlewares/Third_Party/FreeRTOS/Source/timers.c **** 		/* Ensure the infrastructure used by the timer service task has been
 362:Middlewares/Third_Party/FreeRTOS/Source/timers.c **** 		created/initialised. */
 363:Middlewares/Third_Party/FreeRTOS/Source/timers.c **** 		prvCheckForValidListAndQueue();
 364:Middlewares/Third_Party/FreeRTOS/Source/timers.c **** 
 365:Middlewares/Third_Party/FreeRTOS/Source/timers.c **** 		/* Initialise the timer structure members using the function
 366:Middlewares/Third_Party/FreeRTOS/Source/timers.c **** 		parameters. */
 367:Middlewares/Third_Party/FreeRTOS/Source/timers.c **** 		pxNewTimer->pcTimerName = pcTimerName;
 368:Middlewares/Third_Party/FreeRTOS/Source/timers.c **** 		pxNewTimer->xTimerPeriodInTicks = xTimerPeriodInTicks;
 369:Middlewares/Third_Party/FreeRTOS/Source/timers.c **** 		pxNewTimer->pvTimerID = pvTimerID;
 370:Middlewares/Third_Party/FreeRTOS/Source/timers.c **** 		pxNewTimer->pxCallbackFunction = pxCallbackFunction;
 371:Middlewares/Third_Party/FreeRTOS/Source/timers.c **** 		vListInitialiseItem( &( pxNewTimer->xTimerListItem ) );
 372:Middlewares/Third_Party/FreeRTOS/Source/timers.c **** 		if( uxAutoReload != pdFALSE )
ARM GAS  /tmp/ccLaWYPJ.s 			page 8


 373:Middlewares/Third_Party/FreeRTOS/Source/timers.c **** 		{
 374:Middlewares/Third_Party/FreeRTOS/Source/timers.c **** 			pxNewTimer->ucStatus |= tmrSTATUS_IS_AUTORELOAD;
 375:Middlewares/Third_Party/FreeRTOS/Source/timers.c **** 		}
 376:Middlewares/Third_Party/FreeRTOS/Source/timers.c **** 		traceTIMER_CREATE( pxNewTimer );
 377:Middlewares/Third_Party/FreeRTOS/Source/timers.c **** 	}
 378:Middlewares/Third_Party/FreeRTOS/Source/timers.c **** }
 379:Middlewares/Third_Party/FreeRTOS/Source/timers.c **** /*-----------------------------------------------------------*/
 380:Middlewares/Third_Party/FreeRTOS/Source/timers.c **** 
 381:Middlewares/Third_Party/FreeRTOS/Source/timers.c **** BaseType_t xTimerGenericCommand( TimerHandle_t xTimer, const BaseType_t xCommandID, const TickType_
 382:Middlewares/Third_Party/FreeRTOS/Source/timers.c **** {
 383:Middlewares/Third_Party/FreeRTOS/Source/timers.c **** BaseType_t xReturn = pdFAIL;
 384:Middlewares/Third_Party/FreeRTOS/Source/timers.c **** DaemonTaskMessage_t xMessage;
 385:Middlewares/Third_Party/FreeRTOS/Source/timers.c **** 
 386:Middlewares/Third_Party/FreeRTOS/Source/timers.c **** 	configASSERT( xTimer );
 387:Middlewares/Third_Party/FreeRTOS/Source/timers.c **** 
 388:Middlewares/Third_Party/FreeRTOS/Source/timers.c **** 	/* Send a message to the timer service task to perform a particular action
 389:Middlewares/Third_Party/FreeRTOS/Source/timers.c **** 	on a particular timer definition. */
 390:Middlewares/Third_Party/FreeRTOS/Source/timers.c **** 	if( xTimerQueue != NULL )
 391:Middlewares/Third_Party/FreeRTOS/Source/timers.c **** 	{
 392:Middlewares/Third_Party/FreeRTOS/Source/timers.c **** 		/* Send a command to the timer service task to start the xTimer timer. */
 393:Middlewares/Third_Party/FreeRTOS/Source/timers.c **** 		xMessage.xMessageID = xCommandID;
 394:Middlewares/Third_Party/FreeRTOS/Source/timers.c **** 		xMessage.u.xTimerParameters.xMessageValue = xOptionalValue;
 395:Middlewares/Third_Party/FreeRTOS/Source/timers.c **** 		xMessage.u.xTimerParameters.pxTimer = xTimer;
 396:Middlewares/Third_Party/FreeRTOS/Source/timers.c **** 
 397:Middlewares/Third_Party/FreeRTOS/Source/timers.c **** 		if( xCommandID < tmrFIRST_FROM_ISR_COMMAND )
 398:Middlewares/Third_Party/FreeRTOS/Source/timers.c **** 		{
 399:Middlewares/Third_Party/FreeRTOS/Source/timers.c **** 			if( xTaskGetSchedulerState() == taskSCHEDULER_RUNNING )
 400:Middlewares/Third_Party/FreeRTOS/Source/timers.c **** 			{
 401:Middlewares/Third_Party/FreeRTOS/Source/timers.c **** 				xReturn = xQueueSendToBack( xTimerQueue, &xMessage, xTicksToWait );
 402:Middlewares/Third_Party/FreeRTOS/Source/timers.c **** 			}
 403:Middlewares/Third_Party/FreeRTOS/Source/timers.c **** 			else
 404:Middlewares/Third_Party/FreeRTOS/Source/timers.c **** 			{
 405:Middlewares/Third_Party/FreeRTOS/Source/timers.c **** 				xReturn = xQueueSendToBack( xTimerQueue, &xMessage, tmrNO_DELAY );
 406:Middlewares/Third_Party/FreeRTOS/Source/timers.c **** 			}
 407:Middlewares/Third_Party/FreeRTOS/Source/timers.c **** 		}
 408:Middlewares/Third_Party/FreeRTOS/Source/timers.c **** 		else
 409:Middlewares/Third_Party/FreeRTOS/Source/timers.c **** 		{
 410:Middlewares/Third_Party/FreeRTOS/Source/timers.c **** 			xReturn = xQueueSendToBackFromISR( xTimerQueue, &xMessage, pxHigherPriorityTaskWoken );
 411:Middlewares/Third_Party/FreeRTOS/Source/timers.c **** 		}
 412:Middlewares/Third_Party/FreeRTOS/Source/timers.c **** 
 413:Middlewares/Third_Party/FreeRTOS/Source/timers.c **** 		traceTIMER_COMMAND_SEND( xTimer, xCommandID, xOptionalValue, xReturn );
 414:Middlewares/Third_Party/FreeRTOS/Source/timers.c **** 	}
 415:Middlewares/Third_Party/FreeRTOS/Source/timers.c **** 	else
 416:Middlewares/Third_Party/FreeRTOS/Source/timers.c **** 	{
 417:Middlewares/Third_Party/FreeRTOS/Source/timers.c **** 		mtCOVERAGE_TEST_MARKER();
 418:Middlewares/Third_Party/FreeRTOS/Source/timers.c **** 	}
 419:Middlewares/Third_Party/FreeRTOS/Source/timers.c **** 
 420:Middlewares/Third_Party/FreeRTOS/Source/timers.c **** 	return xReturn;
 421:Middlewares/Third_Party/FreeRTOS/Source/timers.c **** }
 422:Middlewares/Third_Party/FreeRTOS/Source/timers.c **** /*-----------------------------------------------------------*/
 423:Middlewares/Third_Party/FreeRTOS/Source/timers.c **** 
 424:Middlewares/Third_Party/FreeRTOS/Source/timers.c **** TaskHandle_t xTimerGetTimerDaemonTaskHandle( void )
 425:Middlewares/Third_Party/FreeRTOS/Source/timers.c **** {
 426:Middlewares/Third_Party/FreeRTOS/Source/timers.c **** 	/* If xTimerGetTimerDaemonTaskHandle() is called before the scheduler has been
 427:Middlewares/Third_Party/FreeRTOS/Source/timers.c **** 	started, then xTimerTaskHandle will be NULL. */
 428:Middlewares/Third_Party/FreeRTOS/Source/timers.c **** 	configASSERT( ( xTimerTaskHandle != NULL ) );
 429:Middlewares/Third_Party/FreeRTOS/Source/timers.c **** 	return xTimerTaskHandle;
ARM GAS  /tmp/ccLaWYPJ.s 			page 9


 430:Middlewares/Third_Party/FreeRTOS/Source/timers.c **** }
 431:Middlewares/Third_Party/FreeRTOS/Source/timers.c **** /*-----------------------------------------------------------*/
 432:Middlewares/Third_Party/FreeRTOS/Source/timers.c **** 
 433:Middlewares/Third_Party/FreeRTOS/Source/timers.c **** TickType_t xTimerGetPeriod( TimerHandle_t xTimer )
 434:Middlewares/Third_Party/FreeRTOS/Source/timers.c **** {
 435:Middlewares/Third_Party/FreeRTOS/Source/timers.c **** Timer_t *pxTimer = xTimer;
 436:Middlewares/Third_Party/FreeRTOS/Source/timers.c **** 
 437:Middlewares/Third_Party/FreeRTOS/Source/timers.c **** 	configASSERT( xTimer );
 438:Middlewares/Third_Party/FreeRTOS/Source/timers.c **** 	return pxTimer->xTimerPeriodInTicks;
 439:Middlewares/Third_Party/FreeRTOS/Source/timers.c **** }
 440:Middlewares/Third_Party/FreeRTOS/Source/timers.c **** /*-----------------------------------------------------------*/
 441:Middlewares/Third_Party/FreeRTOS/Source/timers.c **** 
 442:Middlewares/Third_Party/FreeRTOS/Source/timers.c **** void vTimerSetReloadMode( TimerHandle_t xTimer, const UBaseType_t uxAutoReload )
 443:Middlewares/Third_Party/FreeRTOS/Source/timers.c **** {
 444:Middlewares/Third_Party/FreeRTOS/Source/timers.c **** Timer_t * pxTimer =  xTimer;
 445:Middlewares/Third_Party/FreeRTOS/Source/timers.c **** 
 446:Middlewares/Third_Party/FreeRTOS/Source/timers.c **** 	configASSERT( xTimer );
 447:Middlewares/Third_Party/FreeRTOS/Source/timers.c **** 	taskENTER_CRITICAL();
 448:Middlewares/Third_Party/FreeRTOS/Source/timers.c **** 	{
 449:Middlewares/Third_Party/FreeRTOS/Source/timers.c **** 		if( uxAutoReload != pdFALSE )
 450:Middlewares/Third_Party/FreeRTOS/Source/timers.c **** 		{
 451:Middlewares/Third_Party/FreeRTOS/Source/timers.c **** 			pxTimer->ucStatus |= tmrSTATUS_IS_AUTORELOAD;
 452:Middlewares/Third_Party/FreeRTOS/Source/timers.c **** 		}
 453:Middlewares/Third_Party/FreeRTOS/Source/timers.c **** 		else
 454:Middlewares/Third_Party/FreeRTOS/Source/timers.c **** 		{
 455:Middlewares/Third_Party/FreeRTOS/Source/timers.c **** 			pxTimer->ucStatus &= ~tmrSTATUS_IS_AUTORELOAD;
 456:Middlewares/Third_Party/FreeRTOS/Source/timers.c **** 		}
 457:Middlewares/Third_Party/FreeRTOS/Source/timers.c **** 	}
 458:Middlewares/Third_Party/FreeRTOS/Source/timers.c **** 	taskEXIT_CRITICAL();
 459:Middlewares/Third_Party/FreeRTOS/Source/timers.c **** }
 460:Middlewares/Third_Party/FreeRTOS/Source/timers.c **** /*-----------------------------------------------------------*/
 461:Middlewares/Third_Party/FreeRTOS/Source/timers.c **** 
 462:Middlewares/Third_Party/FreeRTOS/Source/timers.c **** TickType_t xTimerGetExpiryTime( TimerHandle_t xTimer )
 463:Middlewares/Third_Party/FreeRTOS/Source/timers.c **** {
 464:Middlewares/Third_Party/FreeRTOS/Source/timers.c **** Timer_t * pxTimer =  xTimer;
 465:Middlewares/Third_Party/FreeRTOS/Source/timers.c **** TickType_t xReturn;
 466:Middlewares/Third_Party/FreeRTOS/Source/timers.c **** 
 467:Middlewares/Third_Party/FreeRTOS/Source/timers.c **** 	configASSERT( xTimer );
 468:Middlewares/Third_Party/FreeRTOS/Source/timers.c **** 	xReturn = listGET_LIST_ITEM_VALUE( &( pxTimer->xTimerListItem ) );
 469:Middlewares/Third_Party/FreeRTOS/Source/timers.c **** 	return xReturn;
 470:Middlewares/Third_Party/FreeRTOS/Source/timers.c **** }
 471:Middlewares/Third_Party/FreeRTOS/Source/timers.c **** /*-----------------------------------------------------------*/
 472:Middlewares/Third_Party/FreeRTOS/Source/timers.c **** 
 473:Middlewares/Third_Party/FreeRTOS/Source/timers.c **** const char * pcTimerGetName( TimerHandle_t xTimer ) /*lint !e971 Unqualified char types are allowed
 474:Middlewares/Third_Party/FreeRTOS/Source/timers.c **** {
 475:Middlewares/Third_Party/FreeRTOS/Source/timers.c **** Timer_t *pxTimer = xTimer;
 476:Middlewares/Third_Party/FreeRTOS/Source/timers.c **** 
 477:Middlewares/Third_Party/FreeRTOS/Source/timers.c **** 	configASSERT( xTimer );
 478:Middlewares/Third_Party/FreeRTOS/Source/timers.c **** 	return pxTimer->pcTimerName;
 479:Middlewares/Third_Party/FreeRTOS/Source/timers.c **** }
 480:Middlewares/Third_Party/FreeRTOS/Source/timers.c **** /*-----------------------------------------------------------*/
 481:Middlewares/Third_Party/FreeRTOS/Source/timers.c **** 
 482:Middlewares/Third_Party/FreeRTOS/Source/timers.c **** static void prvProcessExpiredTimer( const TickType_t xNextExpireTime, const TickType_t xTimeNow )
 483:Middlewares/Third_Party/FreeRTOS/Source/timers.c **** {
 484:Middlewares/Third_Party/FreeRTOS/Source/timers.c **** BaseType_t xResult;
 485:Middlewares/Third_Party/FreeRTOS/Source/timers.c **** Timer_t * const pxTimer = ( Timer_t * ) listGET_OWNER_OF_HEAD_ENTRY( pxCurrentTimerList ); /*lint !
 486:Middlewares/Third_Party/FreeRTOS/Source/timers.c **** 
ARM GAS  /tmp/ccLaWYPJ.s 			page 10


 487:Middlewares/Third_Party/FreeRTOS/Source/timers.c **** 	/* Remove the timer from the list of active timers.  A check has already
 488:Middlewares/Third_Party/FreeRTOS/Source/timers.c **** 	been performed to ensure the list is not empty. */
 489:Middlewares/Third_Party/FreeRTOS/Source/timers.c **** 	( void ) uxListRemove( &( pxTimer->xTimerListItem ) );
 490:Middlewares/Third_Party/FreeRTOS/Source/timers.c **** 	traceTIMER_EXPIRED( pxTimer );
 491:Middlewares/Third_Party/FreeRTOS/Source/timers.c **** 
 492:Middlewares/Third_Party/FreeRTOS/Source/timers.c **** 	/* If the timer is an auto reload timer then calculate the next
 493:Middlewares/Third_Party/FreeRTOS/Source/timers.c **** 	expiry time and re-insert the timer in the list of active timers. */
 494:Middlewares/Third_Party/FreeRTOS/Source/timers.c **** 	if( ( pxTimer->ucStatus & tmrSTATUS_IS_AUTORELOAD ) != 0 )
 495:Middlewares/Third_Party/FreeRTOS/Source/timers.c **** 	{
 496:Middlewares/Third_Party/FreeRTOS/Source/timers.c **** 		/* The timer is inserted into a list using a time relative to anything
 497:Middlewares/Third_Party/FreeRTOS/Source/timers.c **** 		other than the current time.  It will therefore be inserted into the
 498:Middlewares/Third_Party/FreeRTOS/Source/timers.c **** 		correct list relative to the time this task thinks it is now. */
 499:Middlewares/Third_Party/FreeRTOS/Source/timers.c **** 		if( prvInsertTimerInActiveList( pxTimer, ( xNextExpireTime + pxTimer->xTimerPeriodInTicks ), xTim
 500:Middlewares/Third_Party/FreeRTOS/Source/timers.c **** 		{
 501:Middlewares/Third_Party/FreeRTOS/Source/timers.c **** 			/* The timer expired before it was added to the active timer
 502:Middlewares/Third_Party/FreeRTOS/Source/timers.c **** 			list.  Reload it now.  */
 503:Middlewares/Third_Party/FreeRTOS/Source/timers.c **** 			xResult = xTimerGenericCommand( pxTimer, tmrCOMMAND_START_DONT_TRACE, xNextExpireTime, NULL, tmr
 504:Middlewares/Third_Party/FreeRTOS/Source/timers.c **** 			configASSERT( xResult );
 505:Middlewares/Third_Party/FreeRTOS/Source/timers.c **** 			( void ) xResult;
 506:Middlewares/Third_Party/FreeRTOS/Source/timers.c **** 		}
 507:Middlewares/Third_Party/FreeRTOS/Source/timers.c **** 		else
 508:Middlewares/Third_Party/FreeRTOS/Source/timers.c **** 		{
 509:Middlewares/Third_Party/FreeRTOS/Source/timers.c **** 			mtCOVERAGE_TEST_MARKER();
 510:Middlewares/Third_Party/FreeRTOS/Source/timers.c **** 		}
 511:Middlewares/Third_Party/FreeRTOS/Source/timers.c **** 	}
 512:Middlewares/Third_Party/FreeRTOS/Source/timers.c **** 	else
 513:Middlewares/Third_Party/FreeRTOS/Source/timers.c **** 	{
 514:Middlewares/Third_Party/FreeRTOS/Source/timers.c **** 		pxTimer->ucStatus &= ~tmrSTATUS_IS_ACTIVE;
 515:Middlewares/Third_Party/FreeRTOS/Source/timers.c **** 		mtCOVERAGE_TEST_MARKER();
 516:Middlewares/Third_Party/FreeRTOS/Source/timers.c **** 	}
 517:Middlewares/Third_Party/FreeRTOS/Source/timers.c **** 
 518:Middlewares/Third_Party/FreeRTOS/Source/timers.c **** 	/* Call the timer callback. */
 519:Middlewares/Third_Party/FreeRTOS/Source/timers.c **** 	pxTimer->pxCallbackFunction( ( TimerHandle_t ) pxTimer );
 520:Middlewares/Third_Party/FreeRTOS/Source/timers.c **** }
 521:Middlewares/Third_Party/FreeRTOS/Source/timers.c **** /*-----------------------------------------------------------*/
 522:Middlewares/Third_Party/FreeRTOS/Source/timers.c **** 
 523:Middlewares/Third_Party/FreeRTOS/Source/timers.c **** static portTASK_FUNCTION( prvTimerTask, pvParameters )
 524:Middlewares/Third_Party/FreeRTOS/Source/timers.c **** {
 525:Middlewares/Third_Party/FreeRTOS/Source/timers.c **** TickType_t xNextExpireTime;
 526:Middlewares/Third_Party/FreeRTOS/Source/timers.c **** BaseType_t xListWasEmpty;
 527:Middlewares/Third_Party/FreeRTOS/Source/timers.c **** 
 528:Middlewares/Third_Party/FreeRTOS/Source/timers.c **** 	/* Just to avoid compiler warnings. */
 529:Middlewares/Third_Party/FreeRTOS/Source/timers.c **** 	( void ) pvParameters;
 530:Middlewares/Third_Party/FreeRTOS/Source/timers.c **** 
 531:Middlewares/Third_Party/FreeRTOS/Source/timers.c **** 	#if( configUSE_DAEMON_TASK_STARTUP_HOOK == 1 )
 532:Middlewares/Third_Party/FreeRTOS/Source/timers.c **** 	{
 533:Middlewares/Third_Party/FreeRTOS/Source/timers.c **** 		extern void vApplicationDaemonTaskStartupHook( void );
 534:Middlewares/Third_Party/FreeRTOS/Source/timers.c **** 
 535:Middlewares/Third_Party/FreeRTOS/Source/timers.c **** 		/* Allow the application writer to execute some code in the context of
 536:Middlewares/Third_Party/FreeRTOS/Source/timers.c **** 		this task at the point the task starts executing.  This is useful if the
 537:Middlewares/Third_Party/FreeRTOS/Source/timers.c **** 		application includes initialisation code that would benefit from
 538:Middlewares/Third_Party/FreeRTOS/Source/timers.c **** 		executing after the scheduler has been started. */
 539:Middlewares/Third_Party/FreeRTOS/Source/timers.c **** 		vApplicationDaemonTaskStartupHook();
 540:Middlewares/Third_Party/FreeRTOS/Source/timers.c **** 	}
 541:Middlewares/Third_Party/FreeRTOS/Source/timers.c **** 	#endif /* configUSE_DAEMON_TASK_STARTUP_HOOK */
 542:Middlewares/Third_Party/FreeRTOS/Source/timers.c **** 
 543:Middlewares/Third_Party/FreeRTOS/Source/timers.c **** 	for( ;; )
ARM GAS  /tmp/ccLaWYPJ.s 			page 11


 544:Middlewares/Third_Party/FreeRTOS/Source/timers.c **** 	{
 545:Middlewares/Third_Party/FreeRTOS/Source/timers.c **** 		/* Query the timers list to see if it contains any timers, and if so,
 546:Middlewares/Third_Party/FreeRTOS/Source/timers.c **** 		obtain the time at which the next timer will expire. */
 547:Middlewares/Third_Party/FreeRTOS/Source/timers.c **** 		xNextExpireTime = prvGetNextExpireTime( &xListWasEmpty );
 548:Middlewares/Third_Party/FreeRTOS/Source/timers.c **** 
 549:Middlewares/Third_Party/FreeRTOS/Source/timers.c **** 		/* If a timer has expired, process it.  Otherwise, block this task
 550:Middlewares/Third_Party/FreeRTOS/Source/timers.c **** 		until either a timer does expire, or a command is received. */
 551:Middlewares/Third_Party/FreeRTOS/Source/timers.c **** 		prvProcessTimerOrBlockTask( xNextExpireTime, xListWasEmpty );
 552:Middlewares/Third_Party/FreeRTOS/Source/timers.c **** 
 553:Middlewares/Third_Party/FreeRTOS/Source/timers.c **** 		/* Empty the command queue. */
 554:Middlewares/Third_Party/FreeRTOS/Source/timers.c **** 		prvProcessReceivedCommands();
 555:Middlewares/Third_Party/FreeRTOS/Source/timers.c **** 	}
 556:Middlewares/Third_Party/FreeRTOS/Source/timers.c **** }
 557:Middlewares/Third_Party/FreeRTOS/Source/timers.c **** /*-----------------------------------------------------------*/
 558:Middlewares/Third_Party/FreeRTOS/Source/timers.c **** 
 559:Middlewares/Third_Party/FreeRTOS/Source/timers.c **** static void prvProcessTimerOrBlockTask( const TickType_t xNextExpireTime, BaseType_t xListWasEmpty 
 560:Middlewares/Third_Party/FreeRTOS/Source/timers.c **** {
 561:Middlewares/Third_Party/FreeRTOS/Source/timers.c **** TickType_t xTimeNow;
 562:Middlewares/Third_Party/FreeRTOS/Source/timers.c **** BaseType_t xTimerListsWereSwitched;
 563:Middlewares/Third_Party/FreeRTOS/Source/timers.c **** 
 564:Middlewares/Third_Party/FreeRTOS/Source/timers.c **** 	vTaskSuspendAll();
 565:Middlewares/Third_Party/FreeRTOS/Source/timers.c **** 	{
 566:Middlewares/Third_Party/FreeRTOS/Source/timers.c **** 		/* Obtain the time now to make an assessment as to whether the timer
 567:Middlewares/Third_Party/FreeRTOS/Source/timers.c **** 		has expired or not.  If obtaining the time causes the lists to switch
 568:Middlewares/Third_Party/FreeRTOS/Source/timers.c **** 		then don't process this timer as any timers that remained in the list
 569:Middlewares/Third_Party/FreeRTOS/Source/timers.c **** 		when the lists were switched will have been processed within the
 570:Middlewares/Third_Party/FreeRTOS/Source/timers.c **** 		prvSampleTimeNow() function. */
 571:Middlewares/Third_Party/FreeRTOS/Source/timers.c **** 		xTimeNow = prvSampleTimeNow( &xTimerListsWereSwitched );
 572:Middlewares/Third_Party/FreeRTOS/Source/timers.c **** 		if( xTimerListsWereSwitched == pdFALSE )
 573:Middlewares/Third_Party/FreeRTOS/Source/timers.c **** 		{
 574:Middlewares/Third_Party/FreeRTOS/Source/timers.c **** 			/* The tick count has not overflowed, has the timer expired? */
 575:Middlewares/Third_Party/FreeRTOS/Source/timers.c **** 			if( ( xListWasEmpty == pdFALSE ) && ( xNextExpireTime <= xTimeNow ) )
 576:Middlewares/Third_Party/FreeRTOS/Source/timers.c **** 			{
 577:Middlewares/Third_Party/FreeRTOS/Source/timers.c **** 				( void ) xTaskResumeAll();
 578:Middlewares/Third_Party/FreeRTOS/Source/timers.c **** 				prvProcessExpiredTimer( xNextExpireTime, xTimeNow );
 579:Middlewares/Third_Party/FreeRTOS/Source/timers.c **** 			}
 580:Middlewares/Third_Party/FreeRTOS/Source/timers.c **** 			else
 581:Middlewares/Third_Party/FreeRTOS/Source/timers.c **** 			{
 582:Middlewares/Third_Party/FreeRTOS/Source/timers.c **** 				/* The tick count has not overflowed, and the next expire
 583:Middlewares/Third_Party/FreeRTOS/Source/timers.c **** 				time has not been reached yet.  This task should therefore
 584:Middlewares/Third_Party/FreeRTOS/Source/timers.c **** 				block to wait for the next expire time or a command to be
 585:Middlewares/Third_Party/FreeRTOS/Source/timers.c **** 				received - whichever comes first.  The following line cannot
 586:Middlewares/Third_Party/FreeRTOS/Source/timers.c **** 				be reached unless xNextExpireTime > xTimeNow, except in the
 587:Middlewares/Third_Party/FreeRTOS/Source/timers.c **** 				case when the current timer list is empty. */
 588:Middlewares/Third_Party/FreeRTOS/Source/timers.c **** 				if( xListWasEmpty != pdFALSE )
 589:Middlewares/Third_Party/FreeRTOS/Source/timers.c **** 				{
 590:Middlewares/Third_Party/FreeRTOS/Source/timers.c **** 					/* The current timer list is empty - is the overflow list
 591:Middlewares/Third_Party/FreeRTOS/Source/timers.c **** 					also empty? */
 592:Middlewares/Third_Party/FreeRTOS/Source/timers.c **** 					xListWasEmpty = listLIST_IS_EMPTY( pxOverflowTimerList );
 593:Middlewares/Third_Party/FreeRTOS/Source/timers.c **** 				}
 594:Middlewares/Third_Party/FreeRTOS/Source/timers.c **** 
 595:Middlewares/Third_Party/FreeRTOS/Source/timers.c **** 				vQueueWaitForMessageRestricted( xTimerQueue, ( xNextExpireTime - xTimeNow ), xListWasEmpty );
 596:Middlewares/Third_Party/FreeRTOS/Source/timers.c **** 
 597:Middlewares/Third_Party/FreeRTOS/Source/timers.c **** 				if( xTaskResumeAll() == pdFALSE )
 598:Middlewares/Third_Party/FreeRTOS/Source/timers.c **** 				{
 599:Middlewares/Third_Party/FreeRTOS/Source/timers.c **** 					/* Yield to wait for either a command to arrive, or the
 600:Middlewares/Third_Party/FreeRTOS/Source/timers.c **** 					block time to expire.  If a command arrived between the
ARM GAS  /tmp/ccLaWYPJ.s 			page 12


 601:Middlewares/Third_Party/FreeRTOS/Source/timers.c **** 					critical section being exited and this yield then the yield
 602:Middlewares/Third_Party/FreeRTOS/Source/timers.c **** 					will not cause the task to block. */
 603:Middlewares/Third_Party/FreeRTOS/Source/timers.c **** 					portYIELD_WITHIN_API();
 604:Middlewares/Third_Party/FreeRTOS/Source/timers.c **** 				}
 605:Middlewares/Third_Party/FreeRTOS/Source/timers.c **** 				else
 606:Middlewares/Third_Party/FreeRTOS/Source/timers.c **** 				{
 607:Middlewares/Third_Party/FreeRTOS/Source/timers.c **** 					mtCOVERAGE_TEST_MARKER();
 608:Middlewares/Third_Party/FreeRTOS/Source/timers.c **** 				}
 609:Middlewares/Third_Party/FreeRTOS/Source/timers.c **** 			}
 610:Middlewares/Third_Party/FreeRTOS/Source/timers.c **** 		}
 611:Middlewares/Third_Party/FreeRTOS/Source/timers.c **** 		else
 612:Middlewares/Third_Party/FreeRTOS/Source/timers.c **** 		{
 613:Middlewares/Third_Party/FreeRTOS/Source/timers.c **** 			( void ) xTaskResumeAll();
 614:Middlewares/Third_Party/FreeRTOS/Source/timers.c **** 		}
 615:Middlewares/Third_Party/FreeRTOS/Source/timers.c **** 	}
 616:Middlewares/Third_Party/FreeRTOS/Source/timers.c **** }
 617:Middlewares/Third_Party/FreeRTOS/Source/timers.c **** /*-----------------------------------------------------------*/
 618:Middlewares/Third_Party/FreeRTOS/Source/timers.c **** 
 619:Middlewares/Third_Party/FreeRTOS/Source/timers.c **** static TickType_t prvGetNextExpireTime( BaseType_t * const pxListWasEmpty )
 620:Middlewares/Third_Party/FreeRTOS/Source/timers.c **** {
  29              		.loc 1 620 1 view -0
  30              		.cfi_startproc
  31              		@ args = 0, pretend = 0, frame = 0
  32              		@ frame_needed = 0, uses_anonymous_args = 0
  33              		@ link register save eliminated.
 621:Middlewares/Third_Party/FreeRTOS/Source/timers.c **** TickType_t xNextExpireTime;
  34              		.loc 1 621 1 view .LVU1
 622:Middlewares/Third_Party/FreeRTOS/Source/timers.c **** 
 623:Middlewares/Third_Party/FreeRTOS/Source/timers.c **** 	/* Timers are listed in expiry time order, with the head of the list
 624:Middlewares/Third_Party/FreeRTOS/Source/timers.c **** 	referencing the task that will expire first.  Obtain the time at which
 625:Middlewares/Third_Party/FreeRTOS/Source/timers.c **** 	the timer with the nearest expiry time will expire.  If there are no
 626:Middlewares/Third_Party/FreeRTOS/Source/timers.c **** 	active timers then just set the next expire time to 0.  That will cause
 627:Middlewares/Third_Party/FreeRTOS/Source/timers.c **** 	this task to unblock when the tick count overflows, at which point the
 628:Middlewares/Third_Party/FreeRTOS/Source/timers.c **** 	timer lists will be switched and the next expiry time can be
 629:Middlewares/Third_Party/FreeRTOS/Source/timers.c **** 	re-assessed.  */
 630:Middlewares/Third_Party/FreeRTOS/Source/timers.c **** 	*pxListWasEmpty = listLIST_IS_EMPTY( pxCurrentTimerList );
  35              		.loc 1 630 2 view .LVU2
  36              		.loc 1 630 20 is_stmt 0 view .LVU3
  37 0000 064B     		ldr	r3, .L6
  38 0002 1A68     		ldr	r2, [r3]
  39 0004 1368     		ldr	r3, [r2]
  40 0006 2BB9     		cbnz	r3, .L4
  41 0008 0123     		movs	r3, #1
  42              	.L2:
  43              		.loc 1 630 18 discriminator 4 view .LVU4
  44 000a 0360     		str	r3, [r0]
 631:Middlewares/Third_Party/FreeRTOS/Source/timers.c **** 	if( *pxListWasEmpty == pdFALSE )
  45              		.loc 1 631 2 is_stmt 1 discriminator 4 view .LVU5
  46              		.loc 1 631 4 is_stmt 0 discriminator 4 view .LVU6
  47 000c 23B9     		cbnz	r3, .L5
 632:Middlewares/Third_Party/FreeRTOS/Source/timers.c **** 	{
 633:Middlewares/Third_Party/FreeRTOS/Source/timers.c **** 		xNextExpireTime = listGET_ITEM_VALUE_OF_HEAD_ENTRY( pxCurrentTimerList );
  48              		.loc 1 633 3 is_stmt 1 view .LVU7
  49              		.loc 1 633 21 is_stmt 0 view .LVU8
  50 000e D368     		ldr	r3, [r2, #12]
  51              		.loc 1 633 19 view .LVU9
  52 0010 1868     		ldr	r0, [r3]
ARM GAS  /tmp/ccLaWYPJ.s 			page 13


  53              	.LVL1:
  54              		.loc 1 633 19 view .LVU10
  55 0012 7047     		bx	lr
  56              	.LVL2:
  57              	.L4:
 630:Middlewares/Third_Party/FreeRTOS/Source/timers.c **** 	if( *pxListWasEmpty == pdFALSE )
  58              		.loc 1 630 20 view .LVU11
  59 0014 0023     		movs	r3, #0
  60 0016 F8E7     		b	.L2
  61              	.L5:
 634:Middlewares/Third_Party/FreeRTOS/Source/timers.c **** 	}
 635:Middlewares/Third_Party/FreeRTOS/Source/timers.c **** 	else
 636:Middlewares/Third_Party/FreeRTOS/Source/timers.c **** 	{
 637:Middlewares/Third_Party/FreeRTOS/Source/timers.c **** 		/* Ensure the task unblocks when the tick count rolls over. */
 638:Middlewares/Third_Party/FreeRTOS/Source/timers.c **** 		xNextExpireTime = ( TickType_t ) 0U;
  62              		.loc 1 638 19 view .LVU12
  63 0018 0020     		movs	r0, #0
  64              	.LVL3:
 639:Middlewares/Third_Party/FreeRTOS/Source/timers.c **** 	}
 640:Middlewares/Third_Party/FreeRTOS/Source/timers.c **** 
 641:Middlewares/Third_Party/FreeRTOS/Source/timers.c **** 	return xNextExpireTime;
  65              		.loc 1 641 2 is_stmt 1 view .LVU13
 642:Middlewares/Third_Party/FreeRTOS/Source/timers.c **** }
  66              		.loc 1 642 1 is_stmt 0 view .LVU14
  67 001a 7047     		bx	lr
  68              	.L7:
  69              		.align	2
  70              	.L6:
  71 001c 00000000 		.word	.LANCHOR0
  72              		.cfi_endproc
  73              	.LFE17:
  75              		.section	.text.prvInsertTimerInActiveList,"ax",%progbits
  76              		.align	1
  77              		.syntax unified
  78              		.thumb
  79              		.thumb_func
  80              		.fpu fpv4-sp-d16
  82              	prvInsertTimerInActiveList:
  83              	.LVL4:
  84              	.LFB19:
 643:Middlewares/Third_Party/FreeRTOS/Source/timers.c **** /*-----------------------------------------------------------*/
 644:Middlewares/Third_Party/FreeRTOS/Source/timers.c **** 
 645:Middlewares/Third_Party/FreeRTOS/Source/timers.c **** static TickType_t prvSampleTimeNow( BaseType_t * const pxTimerListsWereSwitched )
 646:Middlewares/Third_Party/FreeRTOS/Source/timers.c **** {
 647:Middlewares/Third_Party/FreeRTOS/Source/timers.c **** TickType_t xTimeNow;
 648:Middlewares/Third_Party/FreeRTOS/Source/timers.c **** PRIVILEGED_DATA static TickType_t xLastTime = ( TickType_t ) 0U; /*lint !e956 Variable is only acce
 649:Middlewares/Third_Party/FreeRTOS/Source/timers.c **** 
 650:Middlewares/Third_Party/FreeRTOS/Source/timers.c **** 	xTimeNow = xTaskGetTickCount();
 651:Middlewares/Third_Party/FreeRTOS/Source/timers.c **** 
 652:Middlewares/Third_Party/FreeRTOS/Source/timers.c **** 	if( xTimeNow < xLastTime )
 653:Middlewares/Third_Party/FreeRTOS/Source/timers.c **** 	{
 654:Middlewares/Third_Party/FreeRTOS/Source/timers.c **** 		prvSwitchTimerLists();
 655:Middlewares/Third_Party/FreeRTOS/Source/timers.c **** 		*pxTimerListsWereSwitched = pdTRUE;
 656:Middlewares/Third_Party/FreeRTOS/Source/timers.c **** 	}
 657:Middlewares/Third_Party/FreeRTOS/Source/timers.c **** 	else
 658:Middlewares/Third_Party/FreeRTOS/Source/timers.c **** 	{
 659:Middlewares/Third_Party/FreeRTOS/Source/timers.c **** 		*pxTimerListsWereSwitched = pdFALSE;
ARM GAS  /tmp/ccLaWYPJ.s 			page 14


 660:Middlewares/Third_Party/FreeRTOS/Source/timers.c **** 	}
 661:Middlewares/Third_Party/FreeRTOS/Source/timers.c **** 
 662:Middlewares/Third_Party/FreeRTOS/Source/timers.c **** 	xLastTime = xTimeNow;
 663:Middlewares/Third_Party/FreeRTOS/Source/timers.c **** 
 664:Middlewares/Third_Party/FreeRTOS/Source/timers.c **** 	return xTimeNow;
 665:Middlewares/Third_Party/FreeRTOS/Source/timers.c **** }
 666:Middlewares/Third_Party/FreeRTOS/Source/timers.c **** /*-----------------------------------------------------------*/
 667:Middlewares/Third_Party/FreeRTOS/Source/timers.c **** 
 668:Middlewares/Third_Party/FreeRTOS/Source/timers.c **** static BaseType_t prvInsertTimerInActiveList( Timer_t * const pxTimer, const TickType_t xNextExpiry
 669:Middlewares/Third_Party/FreeRTOS/Source/timers.c **** {
  85              		.loc 1 669 1 is_stmt 1 view -0
  86              		.cfi_startproc
  87              		@ args = 0, pretend = 0, frame = 0
  88              		@ frame_needed = 0, uses_anonymous_args = 0
  89              		.loc 1 669 1 is_stmt 0 view .LVU16
  90 0000 08B5     		push	{r3, lr}
  91              	.LCFI0:
  92              		.cfi_def_cfa_offset 8
  93              		.cfi_offset 3, -8
  94              		.cfi_offset 14, -4
 670:Middlewares/Third_Party/FreeRTOS/Source/timers.c **** BaseType_t xProcessTimerNow = pdFALSE;
  95              		.loc 1 670 1 is_stmt 1 view .LVU17
  96              	.LVL5:
 671:Middlewares/Third_Party/FreeRTOS/Source/timers.c **** 
 672:Middlewares/Third_Party/FreeRTOS/Source/timers.c **** 	listSET_LIST_ITEM_VALUE( &( pxTimer->xTimerListItem ), xNextExpiryTime );
  97              		.loc 1 672 2 view .LVU18
  98 0002 4160     		str	r1, [r0, #4]
 673:Middlewares/Third_Party/FreeRTOS/Source/timers.c **** 	listSET_LIST_ITEM_OWNER( &( pxTimer->xTimerListItem ), pxTimer );
  99              		.loc 1 673 2 view .LVU19
 100 0004 0061     		str	r0, [r0, #16]
 674:Middlewares/Third_Party/FreeRTOS/Source/timers.c **** 
 675:Middlewares/Third_Party/FreeRTOS/Source/timers.c **** 	if( xNextExpiryTime <= xTimeNow )
 101              		.loc 1 675 2 view .LVU20
 102              		.loc 1 675 4 is_stmt 0 view .LVU21
 103 0006 9142     		cmp	r1, r2
 104 0008 0CD8     		bhi	.L9
 676:Middlewares/Third_Party/FreeRTOS/Source/timers.c **** 	{
 677:Middlewares/Third_Party/FreeRTOS/Source/timers.c **** 		/* Has the expiry time elapsed between the command to start/reset a
 678:Middlewares/Third_Party/FreeRTOS/Source/timers.c **** 		timer was issued, and the time the command was processed? */
 679:Middlewares/Third_Party/FreeRTOS/Source/timers.c **** 		if( ( ( TickType_t ) ( xTimeNow - xCommandTime ) ) >= pxTimer->xTimerPeriodInTicks ) /*lint !e961
 105              		.loc 1 679 3 is_stmt 1 view .LVU22
 106              		.loc 1 679 9 is_stmt 0 view .LVU23
 107 000a D21A     		subs	r2, r2, r3
 108              	.LVL6:
 109              		.loc 1 679 64 view .LVU24
 110 000c 8369     		ldr	r3, [r0, #24]
 111              	.LVL7:
 112              		.loc 1 679 5 view .LVU25
 113 000e 9A42     		cmp	r2, r3
 114 0010 01D3     		bcc	.L15
 680:Middlewares/Third_Party/FreeRTOS/Source/timers.c **** 		{
 681:Middlewares/Third_Party/FreeRTOS/Source/timers.c **** 			/* The time between a command being issued and the command being
 682:Middlewares/Third_Party/FreeRTOS/Source/timers.c **** 			processed actually exceeds the timers period.  */
 683:Middlewares/Third_Party/FreeRTOS/Source/timers.c **** 			xProcessTimerNow = pdTRUE;
 115              		.loc 1 683 21 view .LVU26
 116 0012 0120     		movs	r0, #1
 117              	.LVL8:
ARM GAS  /tmp/ccLaWYPJ.s 			page 15


 118              	.L8:
 684:Middlewares/Third_Party/FreeRTOS/Source/timers.c **** 		}
 685:Middlewares/Third_Party/FreeRTOS/Source/timers.c **** 		else
 686:Middlewares/Third_Party/FreeRTOS/Source/timers.c **** 		{
 687:Middlewares/Third_Party/FreeRTOS/Source/timers.c **** 			vListInsert( pxOverflowTimerList, &( pxTimer->xTimerListItem ) );
 688:Middlewares/Third_Party/FreeRTOS/Source/timers.c **** 		}
 689:Middlewares/Third_Party/FreeRTOS/Source/timers.c **** 	}
 690:Middlewares/Third_Party/FreeRTOS/Source/timers.c **** 	else
 691:Middlewares/Third_Party/FreeRTOS/Source/timers.c **** 	{
 692:Middlewares/Third_Party/FreeRTOS/Source/timers.c **** 		if( ( xTimeNow < xCommandTime ) && ( xNextExpiryTime >= xCommandTime ) )
 693:Middlewares/Third_Party/FreeRTOS/Source/timers.c **** 		{
 694:Middlewares/Third_Party/FreeRTOS/Source/timers.c **** 			/* If, since the command was issued, the tick count has overflowed
 695:Middlewares/Third_Party/FreeRTOS/Source/timers.c **** 			but the expiry time has not, then the timer must have already passed
 696:Middlewares/Third_Party/FreeRTOS/Source/timers.c **** 			its expiry time and should be processed immediately. */
 697:Middlewares/Third_Party/FreeRTOS/Source/timers.c **** 			xProcessTimerNow = pdTRUE;
 698:Middlewares/Third_Party/FreeRTOS/Source/timers.c **** 		}
 699:Middlewares/Third_Party/FreeRTOS/Source/timers.c **** 		else
 700:Middlewares/Third_Party/FreeRTOS/Source/timers.c **** 		{
 701:Middlewares/Third_Party/FreeRTOS/Source/timers.c **** 			vListInsert( pxCurrentTimerList, &( pxTimer->xTimerListItem ) );
 702:Middlewares/Third_Party/FreeRTOS/Source/timers.c **** 		}
 703:Middlewares/Third_Party/FreeRTOS/Source/timers.c **** 	}
 704:Middlewares/Third_Party/FreeRTOS/Source/timers.c **** 
 705:Middlewares/Third_Party/FreeRTOS/Source/timers.c **** 	return xProcessTimerNow;
 706:Middlewares/Third_Party/FreeRTOS/Source/timers.c **** }
 119              		.loc 1 706 1 view .LVU27
 120 0014 08BD     		pop	{r3, pc}
 121              	.LVL9:
 122              	.L15:
 687:Middlewares/Third_Party/FreeRTOS/Source/timers.c **** 		}
 123              		.loc 1 687 4 is_stmt 1 view .LVU28
 124 0016 011D     		adds	r1, r0, #4
 125              	.LVL10:
 687:Middlewares/Third_Party/FreeRTOS/Source/timers.c **** 		}
 126              		.loc 1 687 4 is_stmt 0 view .LVU29
 127 0018 094B     		ldr	r3, .L16
 128 001a 1868     		ldr	r0, [r3]
 129              	.LVL11:
 687:Middlewares/Third_Party/FreeRTOS/Source/timers.c **** 		}
 130              		.loc 1 687 4 view .LVU30
 131 001c FFF7FEFF 		bl	vListInsert
 132              	.LVL12:
 670:Middlewares/Third_Party/FreeRTOS/Source/timers.c **** 
 133              		.loc 1 670 12 view .LVU31
 134 0020 0020     		movs	r0, #0
 135 0022 F7E7     		b	.L8
 136              	.LVL13:
 137              	.L9:
 692:Middlewares/Third_Party/FreeRTOS/Source/timers.c **** 		{
 138              		.loc 1 692 3 is_stmt 1 view .LVU32
 692:Middlewares/Third_Party/FreeRTOS/Source/timers.c **** 		{
 139              		.loc 1 692 5 is_stmt 0 view .LVU33
 140 0024 9A42     		cmp	r2, r3
 141 0026 01D2     		bcs	.L11
 692:Middlewares/Third_Party/FreeRTOS/Source/timers.c **** 		{
 142              		.loc 1 692 35 discriminator 1 view .LVU34
 143 0028 9942     		cmp	r1, r3
 144 002a 06D2     		bcs	.L13
ARM GAS  /tmp/ccLaWYPJ.s 			page 16


 145              	.L11:
 701:Middlewares/Third_Party/FreeRTOS/Source/timers.c **** 		}
 146              		.loc 1 701 4 is_stmt 1 view .LVU35
 147 002c 011D     		adds	r1, r0, #4
 148              	.LVL14:
 701:Middlewares/Third_Party/FreeRTOS/Source/timers.c **** 		}
 149              		.loc 1 701 4 is_stmt 0 view .LVU36
 150 002e 054B     		ldr	r3, .L16+4
 151              	.LVL15:
 701:Middlewares/Third_Party/FreeRTOS/Source/timers.c **** 		}
 152              		.loc 1 701 4 view .LVU37
 153 0030 1868     		ldr	r0, [r3]
 154              	.LVL16:
 701:Middlewares/Third_Party/FreeRTOS/Source/timers.c **** 		}
 155              		.loc 1 701 4 view .LVU38
 156 0032 FFF7FEFF 		bl	vListInsert
 157              	.LVL17:
 670:Middlewares/Third_Party/FreeRTOS/Source/timers.c **** 
 158              		.loc 1 670 12 view .LVU39
 159 0036 0020     		movs	r0, #0
 160 0038 ECE7     		b	.L8
 161              	.LVL18:
 162              	.L13:
 697:Middlewares/Third_Party/FreeRTOS/Source/timers.c **** 		}
 163              		.loc 1 697 21 view .LVU40
 164 003a 0120     		movs	r0, #1
 165              	.LVL19:
 705:Middlewares/Third_Party/FreeRTOS/Source/timers.c **** }
 166              		.loc 1 705 2 is_stmt 1 view .LVU41
 705:Middlewares/Third_Party/FreeRTOS/Source/timers.c **** }
 167              		.loc 1 705 9 is_stmt 0 view .LVU42
 168 003c EAE7     		b	.L8
 169              	.L17:
 170 003e 00BF     		.align	2
 171              	.L16:
 172 0040 00000000 		.word	.LANCHOR1
 173 0044 00000000 		.word	.LANCHOR0
 174              		.cfi_endproc
 175              	.LFE19:
 177              		.section	.rodata.prvCheckForValidListAndQueue.str1.4,"aMS",%progbits,1
 178              		.align	2
 179              	.LC0:
 180 0000 546D7251 		.ascii	"TmrQ\000"
 180      00
 181              		.section	.text.prvCheckForValidListAndQueue,"ax",%progbits
 182              		.align	1
 183              		.syntax unified
 184              		.thumb
 185              		.thumb_func
 186              		.fpu fpv4-sp-d16
 188              	prvCheckForValidListAndQueue:
 189              	.LFB22:
 707:Middlewares/Third_Party/FreeRTOS/Source/timers.c **** /*-----------------------------------------------------------*/
 708:Middlewares/Third_Party/FreeRTOS/Source/timers.c **** 
 709:Middlewares/Third_Party/FreeRTOS/Source/timers.c **** static void	prvProcessReceivedCommands( void )
 710:Middlewares/Third_Party/FreeRTOS/Source/timers.c **** {
 711:Middlewares/Third_Party/FreeRTOS/Source/timers.c **** DaemonTaskMessage_t xMessage;
ARM GAS  /tmp/ccLaWYPJ.s 			page 17


 712:Middlewares/Third_Party/FreeRTOS/Source/timers.c **** Timer_t *pxTimer;
 713:Middlewares/Third_Party/FreeRTOS/Source/timers.c **** BaseType_t xTimerListsWereSwitched, xResult;
 714:Middlewares/Third_Party/FreeRTOS/Source/timers.c **** TickType_t xTimeNow;
 715:Middlewares/Third_Party/FreeRTOS/Source/timers.c **** 
 716:Middlewares/Third_Party/FreeRTOS/Source/timers.c **** 	while( xQueueReceive( xTimerQueue, &xMessage, tmrNO_DELAY ) != pdFAIL ) /*lint !e603 xMessage does
 717:Middlewares/Third_Party/FreeRTOS/Source/timers.c **** 	{
 718:Middlewares/Third_Party/FreeRTOS/Source/timers.c **** 		#if ( INCLUDE_xTimerPendFunctionCall == 1 )
 719:Middlewares/Third_Party/FreeRTOS/Source/timers.c **** 		{
 720:Middlewares/Third_Party/FreeRTOS/Source/timers.c **** 			/* Negative commands are pended function calls rather than timer
 721:Middlewares/Third_Party/FreeRTOS/Source/timers.c **** 			commands. */
 722:Middlewares/Third_Party/FreeRTOS/Source/timers.c **** 			if( xMessage.xMessageID < ( BaseType_t ) 0 )
 723:Middlewares/Third_Party/FreeRTOS/Source/timers.c **** 			{
 724:Middlewares/Third_Party/FreeRTOS/Source/timers.c **** 				const CallbackParameters_t * const pxCallback = &( xMessage.u.xCallbackParameters );
 725:Middlewares/Third_Party/FreeRTOS/Source/timers.c **** 
 726:Middlewares/Third_Party/FreeRTOS/Source/timers.c **** 				/* The timer uses the xCallbackParameters member to request a
 727:Middlewares/Third_Party/FreeRTOS/Source/timers.c **** 				callback be executed.  Check the callback is not NULL. */
 728:Middlewares/Third_Party/FreeRTOS/Source/timers.c **** 				configASSERT( pxCallback );
 729:Middlewares/Third_Party/FreeRTOS/Source/timers.c **** 
 730:Middlewares/Third_Party/FreeRTOS/Source/timers.c **** 				/* Call the function. */
 731:Middlewares/Third_Party/FreeRTOS/Source/timers.c **** 				pxCallback->pxCallbackFunction( pxCallback->pvParameter1, pxCallback->ulParameter2 );
 732:Middlewares/Third_Party/FreeRTOS/Source/timers.c **** 			}
 733:Middlewares/Third_Party/FreeRTOS/Source/timers.c **** 			else
 734:Middlewares/Third_Party/FreeRTOS/Source/timers.c **** 			{
 735:Middlewares/Third_Party/FreeRTOS/Source/timers.c **** 				mtCOVERAGE_TEST_MARKER();
 736:Middlewares/Third_Party/FreeRTOS/Source/timers.c **** 			}
 737:Middlewares/Third_Party/FreeRTOS/Source/timers.c **** 		}
 738:Middlewares/Third_Party/FreeRTOS/Source/timers.c **** 		#endif /* INCLUDE_xTimerPendFunctionCall */
 739:Middlewares/Third_Party/FreeRTOS/Source/timers.c **** 
 740:Middlewares/Third_Party/FreeRTOS/Source/timers.c **** 		/* Commands that are positive are timer commands rather than pended
 741:Middlewares/Third_Party/FreeRTOS/Source/timers.c **** 		function calls. */
 742:Middlewares/Third_Party/FreeRTOS/Source/timers.c **** 		if( xMessage.xMessageID >= ( BaseType_t ) 0 )
 743:Middlewares/Third_Party/FreeRTOS/Source/timers.c **** 		{
 744:Middlewares/Third_Party/FreeRTOS/Source/timers.c **** 			/* The messages uses the xTimerParameters member to work on a
 745:Middlewares/Third_Party/FreeRTOS/Source/timers.c **** 			software timer. */
 746:Middlewares/Third_Party/FreeRTOS/Source/timers.c **** 			pxTimer = xMessage.u.xTimerParameters.pxTimer;
 747:Middlewares/Third_Party/FreeRTOS/Source/timers.c **** 
 748:Middlewares/Third_Party/FreeRTOS/Source/timers.c **** 			if( listIS_CONTAINED_WITHIN( NULL, &( pxTimer->xTimerListItem ) ) == pdFALSE ) /*lint !e961. The
 749:Middlewares/Third_Party/FreeRTOS/Source/timers.c **** 			{
 750:Middlewares/Third_Party/FreeRTOS/Source/timers.c **** 				/* The timer is in a list, remove it. */
 751:Middlewares/Third_Party/FreeRTOS/Source/timers.c **** 				( void ) uxListRemove( &( pxTimer->xTimerListItem ) );
 752:Middlewares/Third_Party/FreeRTOS/Source/timers.c **** 			}
 753:Middlewares/Third_Party/FreeRTOS/Source/timers.c **** 			else
 754:Middlewares/Third_Party/FreeRTOS/Source/timers.c **** 			{
 755:Middlewares/Third_Party/FreeRTOS/Source/timers.c **** 				mtCOVERAGE_TEST_MARKER();
 756:Middlewares/Third_Party/FreeRTOS/Source/timers.c **** 			}
 757:Middlewares/Third_Party/FreeRTOS/Source/timers.c **** 
 758:Middlewares/Third_Party/FreeRTOS/Source/timers.c **** 			traceTIMER_COMMAND_RECEIVED( pxTimer, xMessage.xMessageID, xMessage.u.xTimerParameters.xMessageV
 759:Middlewares/Third_Party/FreeRTOS/Source/timers.c **** 
 760:Middlewares/Third_Party/FreeRTOS/Source/timers.c **** 			/* In this case the xTimerListsWereSwitched parameter is not used, but
 761:Middlewares/Third_Party/FreeRTOS/Source/timers.c **** 			it must be present in the function call.  prvSampleTimeNow() must be
 762:Middlewares/Third_Party/FreeRTOS/Source/timers.c **** 			called after the message is received from xTimerQueue so there is no
 763:Middlewares/Third_Party/FreeRTOS/Source/timers.c **** 			possibility of a higher priority task adding a message to the message
 764:Middlewares/Third_Party/FreeRTOS/Source/timers.c **** 			queue with a time that is ahead of the timer daemon task (because it
 765:Middlewares/Third_Party/FreeRTOS/Source/timers.c **** 			pre-empted the timer daemon task after the xTimeNow value was set). */
 766:Middlewares/Third_Party/FreeRTOS/Source/timers.c **** 			xTimeNow = prvSampleTimeNow( &xTimerListsWereSwitched );
 767:Middlewares/Third_Party/FreeRTOS/Source/timers.c **** 
 768:Middlewares/Third_Party/FreeRTOS/Source/timers.c **** 			switch( xMessage.xMessageID )
ARM GAS  /tmp/ccLaWYPJ.s 			page 18


 769:Middlewares/Third_Party/FreeRTOS/Source/timers.c **** 			{
 770:Middlewares/Third_Party/FreeRTOS/Source/timers.c **** 				case tmrCOMMAND_START :
 771:Middlewares/Third_Party/FreeRTOS/Source/timers.c **** 				case tmrCOMMAND_START_FROM_ISR :
 772:Middlewares/Third_Party/FreeRTOS/Source/timers.c **** 				case tmrCOMMAND_RESET :
 773:Middlewares/Third_Party/FreeRTOS/Source/timers.c **** 				case tmrCOMMAND_RESET_FROM_ISR :
 774:Middlewares/Third_Party/FreeRTOS/Source/timers.c **** 				case tmrCOMMAND_START_DONT_TRACE :
 775:Middlewares/Third_Party/FreeRTOS/Source/timers.c **** 					/* Start or restart a timer. */
 776:Middlewares/Third_Party/FreeRTOS/Source/timers.c **** 					pxTimer->ucStatus |= tmrSTATUS_IS_ACTIVE;
 777:Middlewares/Third_Party/FreeRTOS/Source/timers.c **** 					if( prvInsertTimerInActiveList( pxTimer,  xMessage.u.xTimerParameters.xMessageValue + pxTimer-
 778:Middlewares/Third_Party/FreeRTOS/Source/timers.c **** 					{
 779:Middlewares/Third_Party/FreeRTOS/Source/timers.c **** 						/* The timer expired before it was added to the active
 780:Middlewares/Third_Party/FreeRTOS/Source/timers.c **** 						timer list.  Process it now. */
 781:Middlewares/Third_Party/FreeRTOS/Source/timers.c **** 						pxTimer->pxCallbackFunction( ( TimerHandle_t ) pxTimer );
 782:Middlewares/Third_Party/FreeRTOS/Source/timers.c **** 						traceTIMER_EXPIRED( pxTimer );
 783:Middlewares/Third_Party/FreeRTOS/Source/timers.c **** 
 784:Middlewares/Third_Party/FreeRTOS/Source/timers.c **** 						if( ( pxTimer->ucStatus & tmrSTATUS_IS_AUTORELOAD ) != 0 )
 785:Middlewares/Third_Party/FreeRTOS/Source/timers.c **** 						{
 786:Middlewares/Third_Party/FreeRTOS/Source/timers.c **** 							xResult = xTimerGenericCommand( pxTimer, tmrCOMMAND_START_DONT_TRACE, xMessage.u.xTimerParam
 787:Middlewares/Third_Party/FreeRTOS/Source/timers.c **** 							configASSERT( xResult );
 788:Middlewares/Third_Party/FreeRTOS/Source/timers.c **** 							( void ) xResult;
 789:Middlewares/Third_Party/FreeRTOS/Source/timers.c **** 						}
 790:Middlewares/Third_Party/FreeRTOS/Source/timers.c **** 						else
 791:Middlewares/Third_Party/FreeRTOS/Source/timers.c **** 						{
 792:Middlewares/Third_Party/FreeRTOS/Source/timers.c **** 							mtCOVERAGE_TEST_MARKER();
 793:Middlewares/Third_Party/FreeRTOS/Source/timers.c **** 						}
 794:Middlewares/Third_Party/FreeRTOS/Source/timers.c **** 					}
 795:Middlewares/Third_Party/FreeRTOS/Source/timers.c **** 					else
 796:Middlewares/Third_Party/FreeRTOS/Source/timers.c **** 					{
 797:Middlewares/Third_Party/FreeRTOS/Source/timers.c **** 						mtCOVERAGE_TEST_MARKER();
 798:Middlewares/Third_Party/FreeRTOS/Source/timers.c **** 					}
 799:Middlewares/Third_Party/FreeRTOS/Source/timers.c **** 					break;
 800:Middlewares/Third_Party/FreeRTOS/Source/timers.c **** 
 801:Middlewares/Third_Party/FreeRTOS/Source/timers.c **** 				case tmrCOMMAND_STOP :
 802:Middlewares/Third_Party/FreeRTOS/Source/timers.c **** 				case tmrCOMMAND_STOP_FROM_ISR :
 803:Middlewares/Third_Party/FreeRTOS/Source/timers.c **** 					/* The timer has already been removed from the active list. */
 804:Middlewares/Third_Party/FreeRTOS/Source/timers.c **** 					pxTimer->ucStatus &= ~tmrSTATUS_IS_ACTIVE;
 805:Middlewares/Third_Party/FreeRTOS/Source/timers.c **** 					break;
 806:Middlewares/Third_Party/FreeRTOS/Source/timers.c **** 
 807:Middlewares/Third_Party/FreeRTOS/Source/timers.c **** 				case tmrCOMMAND_CHANGE_PERIOD :
 808:Middlewares/Third_Party/FreeRTOS/Source/timers.c **** 				case tmrCOMMAND_CHANGE_PERIOD_FROM_ISR :
 809:Middlewares/Third_Party/FreeRTOS/Source/timers.c **** 					pxTimer->ucStatus |= tmrSTATUS_IS_ACTIVE;
 810:Middlewares/Third_Party/FreeRTOS/Source/timers.c **** 					pxTimer->xTimerPeriodInTicks = xMessage.u.xTimerParameters.xMessageValue;
 811:Middlewares/Third_Party/FreeRTOS/Source/timers.c **** 					configASSERT( ( pxTimer->xTimerPeriodInTicks > 0 ) );
 812:Middlewares/Third_Party/FreeRTOS/Source/timers.c **** 
 813:Middlewares/Third_Party/FreeRTOS/Source/timers.c **** 					/* The new period does not really have a reference, and can
 814:Middlewares/Third_Party/FreeRTOS/Source/timers.c **** 					be longer or shorter than the old one.  The command time is
 815:Middlewares/Third_Party/FreeRTOS/Source/timers.c **** 					therefore set to the current time, and as the period cannot
 816:Middlewares/Third_Party/FreeRTOS/Source/timers.c **** 					be zero the next expiry time can only be in the future,
 817:Middlewares/Third_Party/FreeRTOS/Source/timers.c **** 					meaning (unlike for the xTimerStart() case above) there is
 818:Middlewares/Third_Party/FreeRTOS/Source/timers.c **** 					no fail case that needs to be handled here. */
 819:Middlewares/Third_Party/FreeRTOS/Source/timers.c **** 					( void ) prvInsertTimerInActiveList( pxTimer, ( xTimeNow + pxTimer->xTimerPeriodInTicks ), xTi
 820:Middlewares/Third_Party/FreeRTOS/Source/timers.c **** 					break;
 821:Middlewares/Third_Party/FreeRTOS/Source/timers.c **** 
 822:Middlewares/Third_Party/FreeRTOS/Source/timers.c **** 				case tmrCOMMAND_DELETE :
 823:Middlewares/Third_Party/FreeRTOS/Source/timers.c **** 					#if ( configSUPPORT_DYNAMIC_ALLOCATION == 1 )
 824:Middlewares/Third_Party/FreeRTOS/Source/timers.c **** 					{
 825:Middlewares/Third_Party/FreeRTOS/Source/timers.c **** 						/* The timer has already been removed from the active list,
ARM GAS  /tmp/ccLaWYPJ.s 			page 19


 826:Middlewares/Third_Party/FreeRTOS/Source/timers.c **** 						just free up the memory if the memory was dynamically
 827:Middlewares/Third_Party/FreeRTOS/Source/timers.c **** 						allocated. */
 828:Middlewares/Third_Party/FreeRTOS/Source/timers.c **** 						if( ( pxTimer->ucStatus & tmrSTATUS_IS_STATICALLY_ALLOCATED ) == ( uint8_t ) 0 )
 829:Middlewares/Third_Party/FreeRTOS/Source/timers.c **** 						{
 830:Middlewares/Third_Party/FreeRTOS/Source/timers.c **** 							vPortFree( pxTimer );
 831:Middlewares/Third_Party/FreeRTOS/Source/timers.c **** 						}
 832:Middlewares/Third_Party/FreeRTOS/Source/timers.c **** 						else
 833:Middlewares/Third_Party/FreeRTOS/Source/timers.c **** 						{
 834:Middlewares/Third_Party/FreeRTOS/Source/timers.c **** 							pxTimer->ucStatus &= ~tmrSTATUS_IS_ACTIVE;
 835:Middlewares/Third_Party/FreeRTOS/Source/timers.c **** 						}
 836:Middlewares/Third_Party/FreeRTOS/Source/timers.c **** 					}
 837:Middlewares/Third_Party/FreeRTOS/Source/timers.c **** 					#else
 838:Middlewares/Third_Party/FreeRTOS/Source/timers.c **** 					{
 839:Middlewares/Third_Party/FreeRTOS/Source/timers.c **** 						/* If dynamic allocation is not enabled, the memory
 840:Middlewares/Third_Party/FreeRTOS/Source/timers.c **** 						could not have been dynamically allocated. So there is
 841:Middlewares/Third_Party/FreeRTOS/Source/timers.c **** 						no need to free the memory - just mark the timer as
 842:Middlewares/Third_Party/FreeRTOS/Source/timers.c **** 						"not active". */
 843:Middlewares/Third_Party/FreeRTOS/Source/timers.c **** 						pxTimer->ucStatus &= ~tmrSTATUS_IS_ACTIVE;
 844:Middlewares/Third_Party/FreeRTOS/Source/timers.c **** 					}
 845:Middlewares/Third_Party/FreeRTOS/Source/timers.c **** 					#endif /* configSUPPORT_DYNAMIC_ALLOCATION */
 846:Middlewares/Third_Party/FreeRTOS/Source/timers.c **** 					break;
 847:Middlewares/Third_Party/FreeRTOS/Source/timers.c **** 
 848:Middlewares/Third_Party/FreeRTOS/Source/timers.c **** 				default	:
 849:Middlewares/Third_Party/FreeRTOS/Source/timers.c **** 					/* Don't expect to get here. */
 850:Middlewares/Third_Party/FreeRTOS/Source/timers.c **** 					break;
 851:Middlewares/Third_Party/FreeRTOS/Source/timers.c **** 			}
 852:Middlewares/Third_Party/FreeRTOS/Source/timers.c **** 		}
 853:Middlewares/Third_Party/FreeRTOS/Source/timers.c **** 	}
 854:Middlewares/Third_Party/FreeRTOS/Source/timers.c **** }
 855:Middlewares/Third_Party/FreeRTOS/Source/timers.c **** /*-----------------------------------------------------------*/
 856:Middlewares/Third_Party/FreeRTOS/Source/timers.c **** 
 857:Middlewares/Third_Party/FreeRTOS/Source/timers.c **** static void prvSwitchTimerLists( void )
 858:Middlewares/Third_Party/FreeRTOS/Source/timers.c **** {
 859:Middlewares/Third_Party/FreeRTOS/Source/timers.c **** TickType_t xNextExpireTime, xReloadTime;
 860:Middlewares/Third_Party/FreeRTOS/Source/timers.c **** List_t *pxTemp;
 861:Middlewares/Third_Party/FreeRTOS/Source/timers.c **** Timer_t *pxTimer;
 862:Middlewares/Third_Party/FreeRTOS/Source/timers.c **** BaseType_t xResult;
 863:Middlewares/Third_Party/FreeRTOS/Source/timers.c **** 
 864:Middlewares/Third_Party/FreeRTOS/Source/timers.c **** 	/* The tick count has overflowed.  The timer lists must be switched.
 865:Middlewares/Third_Party/FreeRTOS/Source/timers.c **** 	If there are any timers still referenced from the current timer list
 866:Middlewares/Third_Party/FreeRTOS/Source/timers.c **** 	then they must have expired and should be processed before the lists
 867:Middlewares/Third_Party/FreeRTOS/Source/timers.c **** 	are switched. */
 868:Middlewares/Third_Party/FreeRTOS/Source/timers.c **** 	while( listLIST_IS_EMPTY( pxCurrentTimerList ) == pdFALSE )
 869:Middlewares/Third_Party/FreeRTOS/Source/timers.c **** 	{
 870:Middlewares/Third_Party/FreeRTOS/Source/timers.c **** 		xNextExpireTime = listGET_ITEM_VALUE_OF_HEAD_ENTRY( pxCurrentTimerList );
 871:Middlewares/Third_Party/FreeRTOS/Source/timers.c **** 
 872:Middlewares/Third_Party/FreeRTOS/Source/timers.c **** 		/* Remove the timer from the list. */
 873:Middlewares/Third_Party/FreeRTOS/Source/timers.c **** 		pxTimer = ( Timer_t * ) listGET_OWNER_OF_HEAD_ENTRY( pxCurrentTimerList ); /*lint !e9087 !e9079 v
 874:Middlewares/Third_Party/FreeRTOS/Source/timers.c **** 		( void ) uxListRemove( &( pxTimer->xTimerListItem ) );
 875:Middlewares/Third_Party/FreeRTOS/Source/timers.c **** 		traceTIMER_EXPIRED( pxTimer );
 876:Middlewares/Third_Party/FreeRTOS/Source/timers.c **** 
 877:Middlewares/Third_Party/FreeRTOS/Source/timers.c **** 		/* Execute its callback, then send a command to restart the timer if
 878:Middlewares/Third_Party/FreeRTOS/Source/timers.c **** 		it is an auto-reload timer.  It cannot be restarted here as the lists
 879:Middlewares/Third_Party/FreeRTOS/Source/timers.c **** 		have not yet been switched. */
 880:Middlewares/Third_Party/FreeRTOS/Source/timers.c **** 		pxTimer->pxCallbackFunction( ( TimerHandle_t ) pxTimer );
 881:Middlewares/Third_Party/FreeRTOS/Source/timers.c **** 
 882:Middlewares/Third_Party/FreeRTOS/Source/timers.c **** 		if( ( pxTimer->ucStatus & tmrSTATUS_IS_AUTORELOAD ) != 0 )
ARM GAS  /tmp/ccLaWYPJ.s 			page 20


 883:Middlewares/Third_Party/FreeRTOS/Source/timers.c **** 		{
 884:Middlewares/Third_Party/FreeRTOS/Source/timers.c **** 			/* Calculate the reload value, and if the reload value results in
 885:Middlewares/Third_Party/FreeRTOS/Source/timers.c **** 			the timer going into the same timer list then it has already expired
 886:Middlewares/Third_Party/FreeRTOS/Source/timers.c **** 			and the timer should be re-inserted into the current list so it is
 887:Middlewares/Third_Party/FreeRTOS/Source/timers.c **** 			processed again within this loop.  Otherwise a command should be sent
 888:Middlewares/Third_Party/FreeRTOS/Source/timers.c **** 			to restart the timer to ensure it is only inserted into a list after
 889:Middlewares/Third_Party/FreeRTOS/Source/timers.c **** 			the lists have been swapped. */
 890:Middlewares/Third_Party/FreeRTOS/Source/timers.c **** 			xReloadTime = ( xNextExpireTime + pxTimer->xTimerPeriodInTicks );
 891:Middlewares/Third_Party/FreeRTOS/Source/timers.c **** 			if( xReloadTime > xNextExpireTime )
 892:Middlewares/Third_Party/FreeRTOS/Source/timers.c **** 			{
 893:Middlewares/Third_Party/FreeRTOS/Source/timers.c **** 				listSET_LIST_ITEM_VALUE( &( pxTimer->xTimerListItem ), xReloadTime );
 894:Middlewares/Third_Party/FreeRTOS/Source/timers.c **** 				listSET_LIST_ITEM_OWNER( &( pxTimer->xTimerListItem ), pxTimer );
 895:Middlewares/Third_Party/FreeRTOS/Source/timers.c **** 				vListInsert( pxCurrentTimerList, &( pxTimer->xTimerListItem ) );
 896:Middlewares/Third_Party/FreeRTOS/Source/timers.c **** 			}
 897:Middlewares/Third_Party/FreeRTOS/Source/timers.c **** 			else
 898:Middlewares/Third_Party/FreeRTOS/Source/timers.c **** 			{
 899:Middlewares/Third_Party/FreeRTOS/Source/timers.c **** 				xResult = xTimerGenericCommand( pxTimer, tmrCOMMAND_START_DONT_TRACE, xNextExpireTime, NULL, tm
 900:Middlewares/Third_Party/FreeRTOS/Source/timers.c **** 				configASSERT( xResult );
 901:Middlewares/Third_Party/FreeRTOS/Source/timers.c **** 				( void ) xResult;
 902:Middlewares/Third_Party/FreeRTOS/Source/timers.c **** 			}
 903:Middlewares/Third_Party/FreeRTOS/Source/timers.c **** 		}
 904:Middlewares/Third_Party/FreeRTOS/Source/timers.c **** 		else
 905:Middlewares/Third_Party/FreeRTOS/Source/timers.c **** 		{
 906:Middlewares/Third_Party/FreeRTOS/Source/timers.c **** 			mtCOVERAGE_TEST_MARKER();
 907:Middlewares/Third_Party/FreeRTOS/Source/timers.c **** 		}
 908:Middlewares/Third_Party/FreeRTOS/Source/timers.c **** 	}
 909:Middlewares/Third_Party/FreeRTOS/Source/timers.c **** 
 910:Middlewares/Third_Party/FreeRTOS/Source/timers.c **** 	pxTemp = pxCurrentTimerList;
 911:Middlewares/Third_Party/FreeRTOS/Source/timers.c **** 	pxCurrentTimerList = pxOverflowTimerList;
 912:Middlewares/Third_Party/FreeRTOS/Source/timers.c **** 	pxOverflowTimerList = pxTemp;
 913:Middlewares/Third_Party/FreeRTOS/Source/timers.c **** }
 914:Middlewares/Third_Party/FreeRTOS/Source/timers.c **** /*-----------------------------------------------------------*/
 915:Middlewares/Third_Party/FreeRTOS/Source/timers.c **** 
 916:Middlewares/Third_Party/FreeRTOS/Source/timers.c **** static void prvCheckForValidListAndQueue( void )
 917:Middlewares/Third_Party/FreeRTOS/Source/timers.c **** {
 190              		.loc 1 917 1 is_stmt 1 view -0
 191              		.cfi_startproc
 192              		@ args = 0, pretend = 0, frame = 0
 193              		@ frame_needed = 0, uses_anonymous_args = 0
 194 0000 30B5     		push	{r4, r5, lr}
 195              	.LCFI1:
 196              		.cfi_def_cfa_offset 12
 197              		.cfi_offset 4, -12
 198              		.cfi_offset 5, -8
 199              		.cfi_offset 14, -4
 200 0002 83B0     		sub	sp, sp, #12
 201              	.LCFI2:
 202              		.cfi_def_cfa_offset 24
 918:Middlewares/Third_Party/FreeRTOS/Source/timers.c **** 	/* Check that the list from which active timers are referenced, and the
 919:Middlewares/Third_Party/FreeRTOS/Source/timers.c **** 	queue used to communicate with the timer service, have been
 920:Middlewares/Third_Party/FreeRTOS/Source/timers.c **** 	initialised. */
 921:Middlewares/Third_Party/FreeRTOS/Source/timers.c **** 	taskENTER_CRITICAL();
 203              		.loc 1 921 2 view .LVU44
 204 0004 FFF7FEFF 		bl	vPortEnterCritical
 205              	.LVL20:
 922:Middlewares/Third_Party/FreeRTOS/Source/timers.c **** 	{
 923:Middlewares/Third_Party/FreeRTOS/Source/timers.c **** 		if( xTimerQueue == NULL )
ARM GAS  /tmp/ccLaWYPJ.s 			page 21


 206              		.loc 1 923 3 view .LVU45
 207              		.loc 1 923 19 is_stmt 0 view .LVU46
 208 0008 114B     		ldr	r3, .L22
 209 000a 1B68     		ldr	r3, [r3]
 210              		.loc 1 923 5 view .LVU47
 211 000c 1BB1     		cbz	r3, .L21
 212              	.L19:
 924:Middlewares/Third_Party/FreeRTOS/Source/timers.c **** 		{
 925:Middlewares/Third_Party/FreeRTOS/Source/timers.c **** 			vListInitialise( &xActiveTimerList1 );
 926:Middlewares/Third_Party/FreeRTOS/Source/timers.c **** 			vListInitialise( &xActiveTimerList2 );
 927:Middlewares/Third_Party/FreeRTOS/Source/timers.c **** 			pxCurrentTimerList = &xActiveTimerList1;
 928:Middlewares/Third_Party/FreeRTOS/Source/timers.c **** 			pxOverflowTimerList = &xActiveTimerList2;
 929:Middlewares/Third_Party/FreeRTOS/Source/timers.c **** 
 930:Middlewares/Third_Party/FreeRTOS/Source/timers.c **** 			#if( configSUPPORT_STATIC_ALLOCATION == 1 )
 931:Middlewares/Third_Party/FreeRTOS/Source/timers.c **** 			{
 932:Middlewares/Third_Party/FreeRTOS/Source/timers.c **** 				/* The timer queue is allocated statically in case
 933:Middlewares/Third_Party/FreeRTOS/Source/timers.c **** 				configSUPPORT_DYNAMIC_ALLOCATION is 0. */
 934:Middlewares/Third_Party/FreeRTOS/Source/timers.c **** 				static StaticQueue_t xStaticTimerQueue; /*lint !e956 Ok to declare in this manner to prevent ad
 935:Middlewares/Third_Party/FreeRTOS/Source/timers.c **** 				static uint8_t ucStaticTimerQueueStorage[ ( size_t ) configTIMER_QUEUE_LENGTH * sizeof( DaemonT
 936:Middlewares/Third_Party/FreeRTOS/Source/timers.c **** 
 937:Middlewares/Third_Party/FreeRTOS/Source/timers.c **** 				xTimerQueue = xQueueCreateStatic( ( UBaseType_t ) configTIMER_QUEUE_LENGTH, ( UBaseType_t ) siz
 938:Middlewares/Third_Party/FreeRTOS/Source/timers.c **** 			}
 939:Middlewares/Third_Party/FreeRTOS/Source/timers.c **** 			#else
 940:Middlewares/Third_Party/FreeRTOS/Source/timers.c **** 			{
 941:Middlewares/Third_Party/FreeRTOS/Source/timers.c **** 				xTimerQueue = xQueueCreate( ( UBaseType_t ) configTIMER_QUEUE_LENGTH, sizeof( DaemonTaskMessage
 942:Middlewares/Third_Party/FreeRTOS/Source/timers.c **** 			}
 943:Middlewares/Third_Party/FreeRTOS/Source/timers.c **** 			#endif
 944:Middlewares/Third_Party/FreeRTOS/Source/timers.c **** 
 945:Middlewares/Third_Party/FreeRTOS/Source/timers.c **** 			#if ( configQUEUE_REGISTRY_SIZE > 0 )
 946:Middlewares/Third_Party/FreeRTOS/Source/timers.c **** 			{
 947:Middlewares/Third_Party/FreeRTOS/Source/timers.c **** 				if( xTimerQueue != NULL )
 948:Middlewares/Third_Party/FreeRTOS/Source/timers.c **** 				{
 949:Middlewares/Third_Party/FreeRTOS/Source/timers.c **** 					vQueueAddToRegistry( xTimerQueue, "TmrQ" );
 950:Middlewares/Third_Party/FreeRTOS/Source/timers.c **** 				}
 951:Middlewares/Third_Party/FreeRTOS/Source/timers.c **** 				else
 952:Middlewares/Third_Party/FreeRTOS/Source/timers.c **** 				{
 953:Middlewares/Third_Party/FreeRTOS/Source/timers.c **** 					mtCOVERAGE_TEST_MARKER();
 954:Middlewares/Third_Party/FreeRTOS/Source/timers.c **** 				}
 955:Middlewares/Third_Party/FreeRTOS/Source/timers.c **** 			}
 956:Middlewares/Third_Party/FreeRTOS/Source/timers.c **** 			#endif /* configQUEUE_REGISTRY_SIZE */
 957:Middlewares/Third_Party/FreeRTOS/Source/timers.c **** 		}
 958:Middlewares/Third_Party/FreeRTOS/Source/timers.c **** 		else
 959:Middlewares/Third_Party/FreeRTOS/Source/timers.c **** 		{
 960:Middlewares/Third_Party/FreeRTOS/Source/timers.c **** 			mtCOVERAGE_TEST_MARKER();
 213              		.loc 1 960 28 is_stmt 1 view .LVU48
 961:Middlewares/Third_Party/FreeRTOS/Source/timers.c **** 		}
 962:Middlewares/Third_Party/FreeRTOS/Source/timers.c **** 	}
 963:Middlewares/Third_Party/FreeRTOS/Source/timers.c **** 	taskEXIT_CRITICAL();
 214              		.loc 1 963 2 view .LVU49
 215 000e FFF7FEFF 		bl	vPortExitCritical
 216              	.LVL21:
 964:Middlewares/Third_Party/FreeRTOS/Source/timers.c **** }
 217              		.loc 1 964 1 is_stmt 0 view .LVU50
 218 0012 03B0     		add	sp, sp, #12
 219              	.LCFI3:
 220              		.cfi_remember_state
 221              		.cfi_def_cfa_offset 12
ARM GAS  /tmp/ccLaWYPJ.s 			page 22


 222              		@ sp needed
 223 0014 30BD     		pop	{r4, r5, pc}
 224              	.L21:
 225              	.LCFI4:
 226              		.cfi_restore_state
 925:Middlewares/Third_Party/FreeRTOS/Source/timers.c **** 			vListInitialise( &xActiveTimerList2 );
 227              		.loc 1 925 4 is_stmt 1 view .LVU51
 228 0016 0F4D     		ldr	r5, .L22+4
 229 0018 2846     		mov	r0, r5
 230 001a FFF7FEFF 		bl	vListInitialise
 231              	.LVL22:
 926:Middlewares/Third_Party/FreeRTOS/Source/timers.c **** 			pxCurrentTimerList = &xActiveTimerList1;
 232              		.loc 1 926 4 view .LVU52
 233 001e 0E4C     		ldr	r4, .L22+8
 234 0020 2046     		mov	r0, r4
 235 0022 FFF7FEFF 		bl	vListInitialise
 236              	.LVL23:
 927:Middlewares/Third_Party/FreeRTOS/Source/timers.c **** 			pxOverflowTimerList = &xActiveTimerList2;
 237              		.loc 1 927 4 view .LVU53
 927:Middlewares/Third_Party/FreeRTOS/Source/timers.c **** 			pxOverflowTimerList = &xActiveTimerList2;
 238              		.loc 1 927 23 is_stmt 0 view .LVU54
 239 0026 0D4B     		ldr	r3, .L22+12
 240 0028 1D60     		str	r5, [r3]
 928:Middlewares/Third_Party/FreeRTOS/Source/timers.c **** 
 241              		.loc 1 928 4 is_stmt 1 view .LVU55
 928:Middlewares/Third_Party/FreeRTOS/Source/timers.c **** 
 242              		.loc 1 928 24 is_stmt 0 view .LVU56
 243 002a 0D4B     		ldr	r3, .L22+16
 244 002c 1C60     		str	r4, [r3]
 245              	.LBB43:
 934:Middlewares/Third_Party/FreeRTOS/Source/timers.c **** 				static uint8_t ucStaticTimerQueueStorage[ ( size_t ) configTIMER_QUEUE_LENGTH * sizeof( DaemonT
 246              		.loc 1 934 5 is_stmt 1 view .LVU57
 935:Middlewares/Third_Party/FreeRTOS/Source/timers.c **** 
 247              		.loc 1 935 5 view .LVU58
 937:Middlewares/Third_Party/FreeRTOS/Source/timers.c **** 			}
 248              		.loc 1 937 5 view .LVU59
 937:Middlewares/Third_Party/FreeRTOS/Source/timers.c **** 			}
 249              		.loc 1 937 19 is_stmt 0 view .LVU60
 250 002e 0023     		movs	r3, #0
 251 0030 0093     		str	r3, [sp]
 252 0032 0C4B     		ldr	r3, .L22+20
 253 0034 0C4A     		ldr	r2, .L22+24
 254 0036 1021     		movs	r1, #16
 255 0038 0A20     		movs	r0, #10
 256 003a FFF7FEFF 		bl	xQueueGenericCreateStatic
 257              	.LVL24:
 937:Middlewares/Third_Party/FreeRTOS/Source/timers.c **** 			}
 258              		.loc 1 937 17 view .LVU61
 259 003e 044B     		ldr	r3, .L22
 260 0040 1860     		str	r0, [r3]
 261              	.LBE43:
 947:Middlewares/Third_Party/FreeRTOS/Source/timers.c **** 				{
 262              		.loc 1 947 5 is_stmt 1 view .LVU62
 947:Middlewares/Third_Party/FreeRTOS/Source/timers.c **** 				{
 263              		.loc 1 947 7 is_stmt 0 view .LVU63
 264 0042 0028     		cmp	r0, #0
 265 0044 E3D0     		beq	.L19
ARM GAS  /tmp/ccLaWYPJ.s 			page 23


 949:Middlewares/Third_Party/FreeRTOS/Source/timers.c **** 				}
 266              		.loc 1 949 6 is_stmt 1 view .LVU64
 267 0046 0949     		ldr	r1, .L22+28
 268 0048 FFF7FEFF 		bl	vQueueAddToRegistry
 269              	.LVL25:
 270 004c DFE7     		b	.L19
 271              	.L23:
 272 004e 00BF     		.align	2
 273              	.L22:
 274 0050 00000000 		.word	.LANCHOR2
 275 0054 00000000 		.word	.LANCHOR3
 276 0058 00000000 		.word	.LANCHOR4
 277 005c 00000000 		.word	.LANCHOR0
 278 0060 00000000 		.word	.LANCHOR1
 279 0064 00000000 		.word	.LANCHOR5
 280 0068 00000000 		.word	.LANCHOR6
 281 006c 00000000 		.word	.LC0
 282              		.cfi_endproc
 283              	.LFE22:
 285              		.section	.text.prvInitialiseNewTimer,"ax",%progbits
 286              		.align	1
 287              		.syntax unified
 288              		.thumb
 289              		.thumb_func
 290              		.fpu fpv4-sp-d16
 292              	prvInitialiseNewTimer:
 293              	.LVL26:
 294              	.LFB7:
 355:Middlewares/Third_Party/FreeRTOS/Source/timers.c **** 	/* 0 is not a valid value for xTimerPeriodInTicks. */
 295              		.loc 1 355 1 view -0
 296              		.cfi_startproc
 297              		@ args = 8, pretend = 0, frame = 0
 298              		@ frame_needed = 0, uses_anonymous_args = 0
 355:Middlewares/Third_Party/FreeRTOS/Source/timers.c **** 	/* 0 is not a valid value for xTimerPeriodInTicks. */
 299              		.loc 1 355 1 is_stmt 0 view .LVU66
 300 0000 2DE9F041 		push	{r4, r5, r6, r7, r8, lr}
 301              	.LCFI5:
 302              		.cfi_def_cfa_offset 24
 303              		.cfi_offset 4, -24
 304              		.cfi_offset 5, -20
 305              		.cfi_offset 6, -16
 306              		.cfi_offset 7, -12
 307              		.cfi_offset 8, -8
 308              		.cfi_offset 14, -4
 309 0004 079C     		ldr	r4, [sp, #28]
 357:Middlewares/Third_Party/FreeRTOS/Source/timers.c **** 
 310              		.loc 1 357 2 is_stmt 1 view .LVU67
 311 0006 41B9     		cbnz	r1, .L25
 357:Middlewares/Third_Party/FreeRTOS/Source/timers.c **** 
 312              		.loc 1 357 2 view .LVU68
 313              	.LBB44:
 314              	.LBI44:
 315              		.file 2 "Middlewares/Third_Party/FreeRTOS/Source/portable/GCC/ARM_CM4F/portmacro.h"
   1:Middlewares/Third_Party/FreeRTOS/Source/portable/GCC/ARM_CM4F/portmacro.h **** /*
   2:Middlewares/Third_Party/FreeRTOS/Source/portable/GCC/ARM_CM4F/portmacro.h ****  * FreeRTOS Kernel V10.2.1
   3:Middlewares/Third_Party/FreeRTOS/Source/portable/GCC/ARM_CM4F/portmacro.h ****  * Copyright (C) 2019 Amazon.com, Inc. or its affiliates.  All Rights Reserved.
   4:Middlewares/Third_Party/FreeRTOS/Source/portable/GCC/ARM_CM4F/portmacro.h ****  *
ARM GAS  /tmp/ccLaWYPJ.s 			page 24


   5:Middlewares/Third_Party/FreeRTOS/Source/portable/GCC/ARM_CM4F/portmacro.h ****  * Permission is hereby granted, free of charge, to any person obtaining a copy of
   6:Middlewares/Third_Party/FreeRTOS/Source/portable/GCC/ARM_CM4F/portmacro.h ****  * this software and associated documentation files (the "Software"), to deal in
   7:Middlewares/Third_Party/FreeRTOS/Source/portable/GCC/ARM_CM4F/portmacro.h ****  * the Software without restriction, including without limitation the rights to
   8:Middlewares/Third_Party/FreeRTOS/Source/portable/GCC/ARM_CM4F/portmacro.h ****  * use, copy, modify, merge, publish, distribute, sublicense, and/or sell copies of
   9:Middlewares/Third_Party/FreeRTOS/Source/portable/GCC/ARM_CM4F/portmacro.h ****  * the Software, and to permit persons to whom the Software is furnished to do so,
  10:Middlewares/Third_Party/FreeRTOS/Source/portable/GCC/ARM_CM4F/portmacro.h ****  * subject to the following conditions:
  11:Middlewares/Third_Party/FreeRTOS/Source/portable/GCC/ARM_CM4F/portmacro.h ****  *
  12:Middlewares/Third_Party/FreeRTOS/Source/portable/GCC/ARM_CM4F/portmacro.h ****  * The above copyright notice and this permission notice shall be included in all
  13:Middlewares/Third_Party/FreeRTOS/Source/portable/GCC/ARM_CM4F/portmacro.h ****  * copies or substantial portions of the Software.
  14:Middlewares/Third_Party/FreeRTOS/Source/portable/GCC/ARM_CM4F/portmacro.h ****  *
  15:Middlewares/Third_Party/FreeRTOS/Source/portable/GCC/ARM_CM4F/portmacro.h ****  * THE SOFTWARE IS PROVIDED "AS IS", WITHOUT WARRANTY OF ANY KIND, EXPRESS OR
  16:Middlewares/Third_Party/FreeRTOS/Source/portable/GCC/ARM_CM4F/portmacro.h ****  * IMPLIED, INCLUDING BUT NOT LIMITED TO THE WARRANTIES OF MERCHANTABILITY, FITNESS
  17:Middlewares/Third_Party/FreeRTOS/Source/portable/GCC/ARM_CM4F/portmacro.h ****  * FOR A PARTICULAR PURPOSE AND NONINFRINGEMENT. IN NO EVENT SHALL THE AUTHORS OR
  18:Middlewares/Third_Party/FreeRTOS/Source/portable/GCC/ARM_CM4F/portmacro.h ****  * COPYRIGHT HOLDERS BE LIABLE FOR ANY CLAIM, DAMAGES OR OTHER LIABILITY, WHETHER
  19:Middlewares/Third_Party/FreeRTOS/Source/portable/GCC/ARM_CM4F/portmacro.h ****  * IN AN ACTION OF CONTRACT, TORT OR OTHERWISE, ARISING FROM, OUT OF OR IN
  20:Middlewares/Third_Party/FreeRTOS/Source/portable/GCC/ARM_CM4F/portmacro.h ****  * CONNECTION WITH THE SOFTWARE OR THE USE OR OTHER DEALINGS IN THE SOFTWARE.
  21:Middlewares/Third_Party/FreeRTOS/Source/portable/GCC/ARM_CM4F/portmacro.h ****  *
  22:Middlewares/Third_Party/FreeRTOS/Source/portable/GCC/ARM_CM4F/portmacro.h ****  * http://www.FreeRTOS.org
  23:Middlewares/Third_Party/FreeRTOS/Source/portable/GCC/ARM_CM4F/portmacro.h ****  * http://aws.amazon.com/freertos
  24:Middlewares/Third_Party/FreeRTOS/Source/portable/GCC/ARM_CM4F/portmacro.h ****  *
  25:Middlewares/Third_Party/FreeRTOS/Source/portable/GCC/ARM_CM4F/portmacro.h ****  * 1 tab == 4 spaces!
  26:Middlewares/Third_Party/FreeRTOS/Source/portable/GCC/ARM_CM4F/portmacro.h ****  */
  27:Middlewares/Third_Party/FreeRTOS/Source/portable/GCC/ARM_CM4F/portmacro.h **** 
  28:Middlewares/Third_Party/FreeRTOS/Source/portable/GCC/ARM_CM4F/portmacro.h **** 
  29:Middlewares/Third_Party/FreeRTOS/Source/portable/GCC/ARM_CM4F/portmacro.h **** #ifndef PORTMACRO_H
  30:Middlewares/Third_Party/FreeRTOS/Source/portable/GCC/ARM_CM4F/portmacro.h **** #define PORTMACRO_H
  31:Middlewares/Third_Party/FreeRTOS/Source/portable/GCC/ARM_CM4F/portmacro.h **** 
  32:Middlewares/Third_Party/FreeRTOS/Source/portable/GCC/ARM_CM4F/portmacro.h **** #ifdef __cplusplus
  33:Middlewares/Third_Party/FreeRTOS/Source/portable/GCC/ARM_CM4F/portmacro.h **** extern "C" {
  34:Middlewares/Third_Party/FreeRTOS/Source/portable/GCC/ARM_CM4F/portmacro.h **** #endif
  35:Middlewares/Third_Party/FreeRTOS/Source/portable/GCC/ARM_CM4F/portmacro.h **** 
  36:Middlewares/Third_Party/FreeRTOS/Source/portable/GCC/ARM_CM4F/portmacro.h **** /*-----------------------------------------------------------
  37:Middlewares/Third_Party/FreeRTOS/Source/portable/GCC/ARM_CM4F/portmacro.h ****  * Port specific definitions.
  38:Middlewares/Third_Party/FreeRTOS/Source/portable/GCC/ARM_CM4F/portmacro.h ****  *
  39:Middlewares/Third_Party/FreeRTOS/Source/portable/GCC/ARM_CM4F/portmacro.h ****  * The settings in this file configure FreeRTOS correctly for the
  40:Middlewares/Third_Party/FreeRTOS/Source/portable/GCC/ARM_CM4F/portmacro.h ****  * given hardware and compiler.
  41:Middlewares/Third_Party/FreeRTOS/Source/portable/GCC/ARM_CM4F/portmacro.h ****  *
  42:Middlewares/Third_Party/FreeRTOS/Source/portable/GCC/ARM_CM4F/portmacro.h ****  * These settings should not be altered.
  43:Middlewares/Third_Party/FreeRTOS/Source/portable/GCC/ARM_CM4F/portmacro.h ****  *-----------------------------------------------------------
  44:Middlewares/Third_Party/FreeRTOS/Source/portable/GCC/ARM_CM4F/portmacro.h ****  */
  45:Middlewares/Third_Party/FreeRTOS/Source/portable/GCC/ARM_CM4F/portmacro.h **** 
  46:Middlewares/Third_Party/FreeRTOS/Source/portable/GCC/ARM_CM4F/portmacro.h **** /* Type definitions. */
  47:Middlewares/Third_Party/FreeRTOS/Source/portable/GCC/ARM_CM4F/portmacro.h **** #define portCHAR		char
  48:Middlewares/Third_Party/FreeRTOS/Source/portable/GCC/ARM_CM4F/portmacro.h **** #define portFLOAT		float
  49:Middlewares/Third_Party/FreeRTOS/Source/portable/GCC/ARM_CM4F/portmacro.h **** #define portDOUBLE		double
  50:Middlewares/Third_Party/FreeRTOS/Source/portable/GCC/ARM_CM4F/portmacro.h **** #define portLONG		long
  51:Middlewares/Third_Party/FreeRTOS/Source/portable/GCC/ARM_CM4F/portmacro.h **** #define portSHORT		short
  52:Middlewares/Third_Party/FreeRTOS/Source/portable/GCC/ARM_CM4F/portmacro.h **** #define portSTACK_TYPE	uint32_t
  53:Middlewares/Third_Party/FreeRTOS/Source/portable/GCC/ARM_CM4F/portmacro.h **** #define portBASE_TYPE	long
  54:Middlewares/Third_Party/FreeRTOS/Source/portable/GCC/ARM_CM4F/portmacro.h **** 
  55:Middlewares/Third_Party/FreeRTOS/Source/portable/GCC/ARM_CM4F/portmacro.h **** typedef portSTACK_TYPE StackType_t;
  56:Middlewares/Third_Party/FreeRTOS/Source/portable/GCC/ARM_CM4F/portmacro.h **** typedef long BaseType_t;
  57:Middlewares/Third_Party/FreeRTOS/Source/portable/GCC/ARM_CM4F/portmacro.h **** typedef unsigned long UBaseType_t;
  58:Middlewares/Third_Party/FreeRTOS/Source/portable/GCC/ARM_CM4F/portmacro.h **** 
  59:Middlewares/Third_Party/FreeRTOS/Source/portable/GCC/ARM_CM4F/portmacro.h **** #if( configUSE_16_BIT_TICKS == 1 )
  60:Middlewares/Third_Party/FreeRTOS/Source/portable/GCC/ARM_CM4F/portmacro.h **** 	typedef uint16_t TickType_t;
  61:Middlewares/Third_Party/FreeRTOS/Source/portable/GCC/ARM_CM4F/portmacro.h **** 	#define portMAX_DELAY ( TickType_t ) 0xffff
ARM GAS  /tmp/ccLaWYPJ.s 			page 25


  62:Middlewares/Third_Party/FreeRTOS/Source/portable/GCC/ARM_CM4F/portmacro.h **** #else
  63:Middlewares/Third_Party/FreeRTOS/Source/portable/GCC/ARM_CM4F/portmacro.h **** 	typedef uint32_t TickType_t;
  64:Middlewares/Third_Party/FreeRTOS/Source/portable/GCC/ARM_CM4F/portmacro.h **** 	#define portMAX_DELAY ( TickType_t ) 0xffffffffUL
  65:Middlewares/Third_Party/FreeRTOS/Source/portable/GCC/ARM_CM4F/portmacro.h **** 
  66:Middlewares/Third_Party/FreeRTOS/Source/portable/GCC/ARM_CM4F/portmacro.h **** 	/* 32-bit tick type on a 32-bit architecture, so reads of the tick count do
  67:Middlewares/Third_Party/FreeRTOS/Source/portable/GCC/ARM_CM4F/portmacro.h **** 	not need to be guarded with a critical section. */
  68:Middlewares/Third_Party/FreeRTOS/Source/portable/GCC/ARM_CM4F/portmacro.h **** 	#define portTICK_TYPE_IS_ATOMIC 1
  69:Middlewares/Third_Party/FreeRTOS/Source/portable/GCC/ARM_CM4F/portmacro.h **** #endif
  70:Middlewares/Third_Party/FreeRTOS/Source/portable/GCC/ARM_CM4F/portmacro.h **** /*-----------------------------------------------------------*/
  71:Middlewares/Third_Party/FreeRTOS/Source/portable/GCC/ARM_CM4F/portmacro.h **** 
  72:Middlewares/Third_Party/FreeRTOS/Source/portable/GCC/ARM_CM4F/portmacro.h **** /* Architecture specifics. */
  73:Middlewares/Third_Party/FreeRTOS/Source/portable/GCC/ARM_CM4F/portmacro.h **** #define portSTACK_GROWTH			( -1 )
  74:Middlewares/Third_Party/FreeRTOS/Source/portable/GCC/ARM_CM4F/portmacro.h **** #define portTICK_PERIOD_MS			( ( TickType_t ) 1000 / configTICK_RATE_HZ )
  75:Middlewares/Third_Party/FreeRTOS/Source/portable/GCC/ARM_CM4F/portmacro.h **** #define portBYTE_ALIGNMENT			8
  76:Middlewares/Third_Party/FreeRTOS/Source/portable/GCC/ARM_CM4F/portmacro.h **** /*-----------------------------------------------------------*/
  77:Middlewares/Third_Party/FreeRTOS/Source/portable/GCC/ARM_CM4F/portmacro.h **** 
  78:Middlewares/Third_Party/FreeRTOS/Source/portable/GCC/ARM_CM4F/portmacro.h **** /* Scheduler utilities. */
  79:Middlewares/Third_Party/FreeRTOS/Source/portable/GCC/ARM_CM4F/portmacro.h **** #define portYIELD() 															\
  80:Middlewares/Third_Party/FreeRTOS/Source/portable/GCC/ARM_CM4F/portmacro.h **** {																				\
  81:Middlewares/Third_Party/FreeRTOS/Source/portable/GCC/ARM_CM4F/portmacro.h **** 	/* Set a PendSV to request a context switch. */								\
  82:Middlewares/Third_Party/FreeRTOS/Source/portable/GCC/ARM_CM4F/portmacro.h **** 	portNVIC_INT_CTRL_REG = portNVIC_PENDSVSET_BIT;								\
  83:Middlewares/Third_Party/FreeRTOS/Source/portable/GCC/ARM_CM4F/portmacro.h **** 																				\
  84:Middlewares/Third_Party/FreeRTOS/Source/portable/GCC/ARM_CM4F/portmacro.h **** 	/* Barriers are normally not required but do ensure the code is completely	\
  85:Middlewares/Third_Party/FreeRTOS/Source/portable/GCC/ARM_CM4F/portmacro.h **** 	within the specified behaviour for the architecture. */						\
  86:Middlewares/Third_Party/FreeRTOS/Source/portable/GCC/ARM_CM4F/portmacro.h **** 	__asm volatile( "dsb" ::: "memory" );										\
  87:Middlewares/Third_Party/FreeRTOS/Source/portable/GCC/ARM_CM4F/portmacro.h **** 	__asm volatile( "isb" );													\
  88:Middlewares/Third_Party/FreeRTOS/Source/portable/GCC/ARM_CM4F/portmacro.h **** }
  89:Middlewares/Third_Party/FreeRTOS/Source/portable/GCC/ARM_CM4F/portmacro.h **** 
  90:Middlewares/Third_Party/FreeRTOS/Source/portable/GCC/ARM_CM4F/portmacro.h **** #define portNVIC_INT_CTRL_REG		( * ( ( volatile uint32_t * ) 0xe000ed04 ) )
  91:Middlewares/Third_Party/FreeRTOS/Source/portable/GCC/ARM_CM4F/portmacro.h **** #define portNVIC_PENDSVSET_BIT		( 1UL << 28UL )
  92:Middlewares/Third_Party/FreeRTOS/Source/portable/GCC/ARM_CM4F/portmacro.h **** #define portEND_SWITCHING_ISR( xSwitchRequired ) if( xSwitchRequired != pdFALSE ) portYIELD()
  93:Middlewares/Third_Party/FreeRTOS/Source/portable/GCC/ARM_CM4F/portmacro.h **** #define portYIELD_FROM_ISR( x ) portEND_SWITCHING_ISR( x )
  94:Middlewares/Third_Party/FreeRTOS/Source/portable/GCC/ARM_CM4F/portmacro.h **** /*-----------------------------------------------------------*/
  95:Middlewares/Third_Party/FreeRTOS/Source/portable/GCC/ARM_CM4F/portmacro.h **** 
  96:Middlewares/Third_Party/FreeRTOS/Source/portable/GCC/ARM_CM4F/portmacro.h **** /* Critical section management. */
  97:Middlewares/Third_Party/FreeRTOS/Source/portable/GCC/ARM_CM4F/portmacro.h **** extern void vPortEnterCritical( void );
  98:Middlewares/Third_Party/FreeRTOS/Source/portable/GCC/ARM_CM4F/portmacro.h **** extern void vPortExitCritical( void );
  99:Middlewares/Third_Party/FreeRTOS/Source/portable/GCC/ARM_CM4F/portmacro.h **** #define portSET_INTERRUPT_MASK_FROM_ISR()		ulPortRaiseBASEPRI()
 100:Middlewares/Third_Party/FreeRTOS/Source/portable/GCC/ARM_CM4F/portmacro.h **** #define portCLEAR_INTERRUPT_MASK_FROM_ISR(x)	vPortSetBASEPRI(x)
 101:Middlewares/Third_Party/FreeRTOS/Source/portable/GCC/ARM_CM4F/portmacro.h **** #define portDISABLE_INTERRUPTS()				vPortRaiseBASEPRI()
 102:Middlewares/Third_Party/FreeRTOS/Source/portable/GCC/ARM_CM4F/portmacro.h **** #define portENABLE_INTERRUPTS()					vPortSetBASEPRI(0)
 103:Middlewares/Third_Party/FreeRTOS/Source/portable/GCC/ARM_CM4F/portmacro.h **** #define portENTER_CRITICAL()					vPortEnterCritical()
 104:Middlewares/Third_Party/FreeRTOS/Source/portable/GCC/ARM_CM4F/portmacro.h **** #define portEXIT_CRITICAL()						vPortExitCritical()
 105:Middlewares/Third_Party/FreeRTOS/Source/portable/GCC/ARM_CM4F/portmacro.h **** 
 106:Middlewares/Third_Party/FreeRTOS/Source/portable/GCC/ARM_CM4F/portmacro.h **** /*-----------------------------------------------------------*/
 107:Middlewares/Third_Party/FreeRTOS/Source/portable/GCC/ARM_CM4F/portmacro.h **** 
 108:Middlewares/Third_Party/FreeRTOS/Source/portable/GCC/ARM_CM4F/portmacro.h **** /* Task function macros as described on the FreeRTOS.org WEB site.  These are
 109:Middlewares/Third_Party/FreeRTOS/Source/portable/GCC/ARM_CM4F/portmacro.h **** not necessary for to use this port.  They are defined so the common demo files
 110:Middlewares/Third_Party/FreeRTOS/Source/portable/GCC/ARM_CM4F/portmacro.h **** (which build with all the ports) will build. */
 111:Middlewares/Third_Party/FreeRTOS/Source/portable/GCC/ARM_CM4F/portmacro.h **** #define portTASK_FUNCTION_PROTO( vFunction, pvParameters ) void vFunction( void *pvParameters )
 112:Middlewares/Third_Party/FreeRTOS/Source/portable/GCC/ARM_CM4F/portmacro.h **** #define portTASK_FUNCTION( vFunction, pvParameters ) void vFunction( void *pvParameters )
 113:Middlewares/Third_Party/FreeRTOS/Source/portable/GCC/ARM_CM4F/portmacro.h **** /*-----------------------------------------------------------*/
 114:Middlewares/Third_Party/FreeRTOS/Source/portable/GCC/ARM_CM4F/portmacro.h **** 
 115:Middlewares/Third_Party/FreeRTOS/Source/portable/GCC/ARM_CM4F/portmacro.h **** /* Tickless idle/low power functionality. */
 116:Middlewares/Third_Party/FreeRTOS/Source/portable/GCC/ARM_CM4F/portmacro.h **** #ifndef portSUPPRESS_TICKS_AND_SLEEP
 117:Middlewares/Third_Party/FreeRTOS/Source/portable/GCC/ARM_CM4F/portmacro.h **** 	extern void vPortSuppressTicksAndSleep( TickType_t xExpectedIdleTime );
 118:Middlewares/Third_Party/FreeRTOS/Source/portable/GCC/ARM_CM4F/portmacro.h **** 	#define portSUPPRESS_TICKS_AND_SLEEP( xExpectedIdleTime ) vPortSuppressTicksAndSleep( xExpectedIdl
ARM GAS  /tmp/ccLaWYPJ.s 			page 26


 119:Middlewares/Third_Party/FreeRTOS/Source/portable/GCC/ARM_CM4F/portmacro.h **** #endif
 120:Middlewares/Third_Party/FreeRTOS/Source/portable/GCC/ARM_CM4F/portmacro.h **** /*-----------------------------------------------------------*/
 121:Middlewares/Third_Party/FreeRTOS/Source/portable/GCC/ARM_CM4F/portmacro.h **** 
 122:Middlewares/Third_Party/FreeRTOS/Source/portable/GCC/ARM_CM4F/portmacro.h **** /* Architecture specific optimisations. */
 123:Middlewares/Third_Party/FreeRTOS/Source/portable/GCC/ARM_CM4F/portmacro.h **** #ifndef configUSE_PORT_OPTIMISED_TASK_SELECTION
 124:Middlewares/Third_Party/FreeRTOS/Source/portable/GCC/ARM_CM4F/portmacro.h **** 	#define configUSE_PORT_OPTIMISED_TASK_SELECTION 1
 125:Middlewares/Third_Party/FreeRTOS/Source/portable/GCC/ARM_CM4F/portmacro.h **** #endif
 126:Middlewares/Third_Party/FreeRTOS/Source/portable/GCC/ARM_CM4F/portmacro.h **** 
 127:Middlewares/Third_Party/FreeRTOS/Source/portable/GCC/ARM_CM4F/portmacro.h **** #if configUSE_PORT_OPTIMISED_TASK_SELECTION == 1
 128:Middlewares/Third_Party/FreeRTOS/Source/portable/GCC/ARM_CM4F/portmacro.h **** 
 129:Middlewares/Third_Party/FreeRTOS/Source/portable/GCC/ARM_CM4F/portmacro.h **** 	/* Generic helper function. */
 130:Middlewares/Third_Party/FreeRTOS/Source/portable/GCC/ARM_CM4F/portmacro.h **** 	__attribute__( ( always_inline ) ) static inline uint8_t ucPortCountLeadingZeros( uint32_t ulBitma
 131:Middlewares/Third_Party/FreeRTOS/Source/portable/GCC/ARM_CM4F/portmacro.h **** 	{
 132:Middlewares/Third_Party/FreeRTOS/Source/portable/GCC/ARM_CM4F/portmacro.h **** 	uint8_t ucReturn;
 133:Middlewares/Third_Party/FreeRTOS/Source/portable/GCC/ARM_CM4F/portmacro.h **** 
 134:Middlewares/Third_Party/FreeRTOS/Source/portable/GCC/ARM_CM4F/portmacro.h **** 		__asm volatile ( "clz %0, %1" : "=r" ( ucReturn ) : "r" ( ulBitmap ) : "memory" );
 135:Middlewares/Third_Party/FreeRTOS/Source/portable/GCC/ARM_CM4F/portmacro.h **** 		return ucReturn;
 136:Middlewares/Third_Party/FreeRTOS/Source/portable/GCC/ARM_CM4F/portmacro.h **** 	}
 137:Middlewares/Third_Party/FreeRTOS/Source/portable/GCC/ARM_CM4F/portmacro.h **** 
 138:Middlewares/Third_Party/FreeRTOS/Source/portable/GCC/ARM_CM4F/portmacro.h **** 	/* Check the configuration. */
 139:Middlewares/Third_Party/FreeRTOS/Source/portable/GCC/ARM_CM4F/portmacro.h **** 	#if( configMAX_PRIORITIES > 32 )
 140:Middlewares/Third_Party/FreeRTOS/Source/portable/GCC/ARM_CM4F/portmacro.h **** 		#error configUSE_PORT_OPTIMISED_TASK_SELECTION can only be set to 1 when configMAX_PRIORITIES is 
 141:Middlewares/Third_Party/FreeRTOS/Source/portable/GCC/ARM_CM4F/portmacro.h **** 	#endif
 142:Middlewares/Third_Party/FreeRTOS/Source/portable/GCC/ARM_CM4F/portmacro.h **** 
 143:Middlewares/Third_Party/FreeRTOS/Source/portable/GCC/ARM_CM4F/portmacro.h **** 	/* Store/clear the ready priorities in a bit map. */
 144:Middlewares/Third_Party/FreeRTOS/Source/portable/GCC/ARM_CM4F/portmacro.h **** 	#define portRECORD_READY_PRIORITY( uxPriority, uxReadyPriorities ) ( uxReadyPriorities ) |= ( 1UL 
 145:Middlewares/Third_Party/FreeRTOS/Source/portable/GCC/ARM_CM4F/portmacro.h **** 	#define portRESET_READY_PRIORITY( uxPriority, uxReadyPriorities ) ( uxReadyPriorities ) &= ~( 1UL 
 146:Middlewares/Third_Party/FreeRTOS/Source/portable/GCC/ARM_CM4F/portmacro.h **** 
 147:Middlewares/Third_Party/FreeRTOS/Source/portable/GCC/ARM_CM4F/portmacro.h **** 	/*-----------------------------------------------------------*/
 148:Middlewares/Third_Party/FreeRTOS/Source/portable/GCC/ARM_CM4F/portmacro.h **** 
 149:Middlewares/Third_Party/FreeRTOS/Source/portable/GCC/ARM_CM4F/portmacro.h **** 	#define portGET_HIGHEST_PRIORITY( uxTopPriority, uxReadyPriorities ) uxTopPriority = ( 31UL - ( ui
 150:Middlewares/Third_Party/FreeRTOS/Source/portable/GCC/ARM_CM4F/portmacro.h **** 
 151:Middlewares/Third_Party/FreeRTOS/Source/portable/GCC/ARM_CM4F/portmacro.h **** #endif /* configUSE_PORT_OPTIMISED_TASK_SELECTION */
 152:Middlewares/Third_Party/FreeRTOS/Source/portable/GCC/ARM_CM4F/portmacro.h **** 
 153:Middlewares/Third_Party/FreeRTOS/Source/portable/GCC/ARM_CM4F/portmacro.h **** /*-----------------------------------------------------------*/
 154:Middlewares/Third_Party/FreeRTOS/Source/portable/GCC/ARM_CM4F/portmacro.h **** 
 155:Middlewares/Third_Party/FreeRTOS/Source/portable/GCC/ARM_CM4F/portmacro.h **** #ifdef configASSERT
 156:Middlewares/Third_Party/FreeRTOS/Source/portable/GCC/ARM_CM4F/portmacro.h **** 	void vPortValidateInterruptPriority( void );
 157:Middlewares/Third_Party/FreeRTOS/Source/portable/GCC/ARM_CM4F/portmacro.h **** 	#define portASSERT_IF_INTERRUPT_PRIORITY_INVALID() 	vPortValidateInterruptPriority()
 158:Middlewares/Third_Party/FreeRTOS/Source/portable/GCC/ARM_CM4F/portmacro.h **** #endif
 159:Middlewares/Third_Party/FreeRTOS/Source/portable/GCC/ARM_CM4F/portmacro.h **** 
 160:Middlewares/Third_Party/FreeRTOS/Source/portable/GCC/ARM_CM4F/portmacro.h **** /* portNOP() is not required by this port. */
 161:Middlewares/Third_Party/FreeRTOS/Source/portable/GCC/ARM_CM4F/portmacro.h **** #define portNOP()
 162:Middlewares/Third_Party/FreeRTOS/Source/portable/GCC/ARM_CM4F/portmacro.h **** 
 163:Middlewares/Third_Party/FreeRTOS/Source/portable/GCC/ARM_CM4F/portmacro.h **** #define portINLINE	__inline
 164:Middlewares/Third_Party/FreeRTOS/Source/portable/GCC/ARM_CM4F/portmacro.h **** 
 165:Middlewares/Third_Party/FreeRTOS/Source/portable/GCC/ARM_CM4F/portmacro.h **** #ifndef portFORCE_INLINE
 166:Middlewares/Third_Party/FreeRTOS/Source/portable/GCC/ARM_CM4F/portmacro.h **** 	#define portFORCE_INLINE inline __attribute__(( always_inline))
 167:Middlewares/Third_Party/FreeRTOS/Source/portable/GCC/ARM_CM4F/portmacro.h **** #endif
 168:Middlewares/Third_Party/FreeRTOS/Source/portable/GCC/ARM_CM4F/portmacro.h **** 
 169:Middlewares/Third_Party/FreeRTOS/Source/portable/GCC/ARM_CM4F/portmacro.h **** portFORCE_INLINE static BaseType_t xPortIsInsideInterrupt( void )
 170:Middlewares/Third_Party/FreeRTOS/Source/portable/GCC/ARM_CM4F/portmacro.h **** {
 171:Middlewares/Third_Party/FreeRTOS/Source/portable/GCC/ARM_CM4F/portmacro.h **** uint32_t ulCurrentInterrupt;
 172:Middlewares/Third_Party/FreeRTOS/Source/portable/GCC/ARM_CM4F/portmacro.h **** BaseType_t xReturn;
 173:Middlewares/Third_Party/FreeRTOS/Source/portable/GCC/ARM_CM4F/portmacro.h **** 
 174:Middlewares/Third_Party/FreeRTOS/Source/portable/GCC/ARM_CM4F/portmacro.h **** 	/* Obtain the number of the currently executing interrupt. */
 175:Middlewares/Third_Party/FreeRTOS/Source/portable/GCC/ARM_CM4F/portmacro.h **** 	__asm volatile( "mrs %0, ipsr" : "=r"( ulCurrentInterrupt ) :: "memory" );
ARM GAS  /tmp/ccLaWYPJ.s 			page 27


 176:Middlewares/Third_Party/FreeRTOS/Source/portable/GCC/ARM_CM4F/portmacro.h **** 
 177:Middlewares/Third_Party/FreeRTOS/Source/portable/GCC/ARM_CM4F/portmacro.h **** 	if( ulCurrentInterrupt == 0 )
 178:Middlewares/Third_Party/FreeRTOS/Source/portable/GCC/ARM_CM4F/portmacro.h **** 	{
 179:Middlewares/Third_Party/FreeRTOS/Source/portable/GCC/ARM_CM4F/portmacro.h **** 		xReturn = pdFALSE;
 180:Middlewares/Third_Party/FreeRTOS/Source/portable/GCC/ARM_CM4F/portmacro.h **** 	}
 181:Middlewares/Third_Party/FreeRTOS/Source/portable/GCC/ARM_CM4F/portmacro.h **** 	else
 182:Middlewares/Third_Party/FreeRTOS/Source/portable/GCC/ARM_CM4F/portmacro.h **** 	{
 183:Middlewares/Third_Party/FreeRTOS/Source/portable/GCC/ARM_CM4F/portmacro.h **** 		xReturn = pdTRUE;
 184:Middlewares/Third_Party/FreeRTOS/Source/portable/GCC/ARM_CM4F/portmacro.h **** 	}
 185:Middlewares/Third_Party/FreeRTOS/Source/portable/GCC/ARM_CM4F/portmacro.h **** 
 186:Middlewares/Third_Party/FreeRTOS/Source/portable/GCC/ARM_CM4F/portmacro.h **** 	return xReturn;
 187:Middlewares/Third_Party/FreeRTOS/Source/portable/GCC/ARM_CM4F/portmacro.h **** }
 188:Middlewares/Third_Party/FreeRTOS/Source/portable/GCC/ARM_CM4F/portmacro.h **** 
 189:Middlewares/Third_Party/FreeRTOS/Source/portable/GCC/ARM_CM4F/portmacro.h **** /*-----------------------------------------------------------*/
 190:Middlewares/Third_Party/FreeRTOS/Source/portable/GCC/ARM_CM4F/portmacro.h **** 
 191:Middlewares/Third_Party/FreeRTOS/Source/portable/GCC/ARM_CM4F/portmacro.h **** portFORCE_INLINE static void vPortRaiseBASEPRI( void )
 316              		.loc 2 191 30 view .LVU69
 317              	.LBB45:
 192:Middlewares/Third_Party/FreeRTOS/Source/portable/GCC/ARM_CM4F/portmacro.h **** {
 193:Middlewares/Third_Party/FreeRTOS/Source/portable/GCC/ARM_CM4F/portmacro.h **** uint32_t ulNewBASEPRI;
 318              		.loc 2 193 1 view .LVU70
 194:Middlewares/Third_Party/FreeRTOS/Source/portable/GCC/ARM_CM4F/portmacro.h **** 
 195:Middlewares/Third_Party/FreeRTOS/Source/portable/GCC/ARM_CM4F/portmacro.h **** 	__asm volatile
 319              		.loc 2 195 2 view .LVU71
 320              		.syntax unified
 321              	@ 195 "Middlewares/Third_Party/FreeRTOS/Source/portable/GCC/ARM_CM4F/portmacro.h" 1
 322 0008 4FF05003 			mov r3, #80												
 323 000c 83F31188 		msr basepri, r3											
 324 0010 BFF36F8F 		isb														
 325 0014 BFF34F8F 		dsb														
 326              	
 327              	@ 0 "" 2
 328              	.LVL27:
 329              		.thumb
 330              		.syntax unified
 331              	.L26:
 332              		.loc 2 195 2 is_stmt 0 view .LVU72
 333              	.LBE45:
 334              	.LBE44:
 357:Middlewares/Third_Party/FreeRTOS/Source/timers.c **** 
 335              		.loc 1 357 2 is_stmt 1 discriminator 1 view .LVU73
 357:Middlewares/Third_Party/FreeRTOS/Source/timers.c **** 
 336              		.loc 1 357 2 discriminator 1 view .LVU74
 357:Middlewares/Third_Party/FreeRTOS/Source/timers.c **** 
 337              		.loc 1 357 2 discriminator 1 view .LVU75
 338 0018 FEE7     		b	.L26
 339              	.LVL28:
 340              	.L25:
 357:Middlewares/Third_Party/FreeRTOS/Source/timers.c **** 
 341              		.loc 1 357 2 is_stmt 0 discriminator 1 view .LVU76
 342 001a 0746     		mov	r7, r0
 343 001c 1546     		mov	r5, r2
 344 001e 1E46     		mov	r6, r3
 345 0020 8846     		mov	r8, r1
 357:Middlewares/Third_Party/FreeRTOS/Source/timers.c **** 
 346              		.loc 1 357 45 is_stmt 1 discriminator 2 view .LVU77
 359:Middlewares/Third_Party/FreeRTOS/Source/timers.c **** 	{
ARM GAS  /tmp/ccLaWYPJ.s 			page 28


 347              		.loc 1 359 2 discriminator 2 view .LVU78
 359:Middlewares/Third_Party/FreeRTOS/Source/timers.c **** 	{
 348              		.loc 1 359 4 is_stmt 0 discriminator 2 view .LVU79
 349 0022 8CB1     		cbz	r4, .L24
 363:Middlewares/Third_Party/FreeRTOS/Source/timers.c **** 
 350              		.loc 1 363 3 is_stmt 1 view .LVU80
 351 0024 FFF7FEFF 		bl	prvCheckForValidListAndQueue
 352              	.LVL29:
 367:Middlewares/Third_Party/FreeRTOS/Source/timers.c **** 		pxNewTimer->xTimerPeriodInTicks = xTimerPeriodInTicks;
 353              		.loc 1 367 3 view .LVU81
 367:Middlewares/Third_Party/FreeRTOS/Source/timers.c **** 		pxNewTimer->xTimerPeriodInTicks = xTimerPeriodInTicks;
 354              		.loc 1 367 27 is_stmt 0 view .LVU82
 355 0028 2760     		str	r7, [r4]
 368:Middlewares/Third_Party/FreeRTOS/Source/timers.c **** 		pxNewTimer->pvTimerID = pvTimerID;
 356              		.loc 1 368 3 is_stmt 1 view .LVU83
 368:Middlewares/Third_Party/FreeRTOS/Source/timers.c **** 		pxNewTimer->pvTimerID = pvTimerID;
 357              		.loc 1 368 35 is_stmt 0 view .LVU84
 358 002a C4F81880 		str	r8, [r4, #24]
 369:Middlewares/Third_Party/FreeRTOS/Source/timers.c **** 		pxNewTimer->pxCallbackFunction = pxCallbackFunction;
 359              		.loc 1 369 3 is_stmt 1 view .LVU85
 369:Middlewares/Third_Party/FreeRTOS/Source/timers.c **** 		pxNewTimer->pxCallbackFunction = pxCallbackFunction;
 360              		.loc 1 369 25 is_stmt 0 view .LVU86
 361 002e E661     		str	r6, [r4, #28]
 370:Middlewares/Third_Party/FreeRTOS/Source/timers.c **** 		vListInitialiseItem( &( pxNewTimer->xTimerListItem ) );
 362              		.loc 1 370 3 is_stmt 1 view .LVU87
 370:Middlewares/Third_Party/FreeRTOS/Source/timers.c **** 		vListInitialiseItem( &( pxNewTimer->xTimerListItem ) );
 363              		.loc 1 370 34 is_stmt 0 view .LVU88
 364 0030 069B     		ldr	r3, [sp, #24]
 365 0032 2362     		str	r3, [r4, #32]
 371:Middlewares/Third_Party/FreeRTOS/Source/timers.c **** 		if( uxAutoReload != pdFALSE )
 366              		.loc 1 371 3 is_stmt 1 view .LVU89
 367 0034 201D     		adds	r0, r4, #4
 368 0036 FFF7FEFF 		bl	vListInitialiseItem
 369              	.LVL30:
 372:Middlewares/Third_Party/FreeRTOS/Source/timers.c **** 		{
 370              		.loc 1 372 3 view .LVU90
 372:Middlewares/Third_Party/FreeRTOS/Source/timers.c **** 		{
 371              		.loc 1 372 5 is_stmt 0 view .LVU91
 372 003a 2DB1     		cbz	r5, .L24
 374:Middlewares/Third_Party/FreeRTOS/Source/timers.c **** 		}
 373              		.loc 1 374 4 is_stmt 1 view .LVU92
 374:Middlewares/Third_Party/FreeRTOS/Source/timers.c **** 		}
 374              		.loc 1 374 25 is_stmt 0 view .LVU93
 375 003c 94F82830 		ldrb	r3, [r4, #40]	@ zero_extendqisi2
 376 0040 43F00403 		orr	r3, r3, #4
 377 0044 84F82830 		strb	r3, [r4, #40]
 376:Middlewares/Third_Party/FreeRTOS/Source/timers.c **** 	}
 378              		.loc 1 376 34 is_stmt 1 view .LVU94
 379              	.L24:
 378:Middlewares/Third_Party/FreeRTOS/Source/timers.c **** /*-----------------------------------------------------------*/
 380              		.loc 1 378 1 is_stmt 0 view .LVU95
 381 0048 BDE8F081 		pop	{r4, r5, r6, r7, r8, pc}
 378:Middlewares/Third_Party/FreeRTOS/Source/timers.c **** /*-----------------------------------------------------------*/
 382              		.loc 1 378 1 view .LVU96
 383              		.cfi_endproc
 384              	.LFE7:
 386              		.section	.rodata.xTimerCreateTimerTask.str1.4,"aMS",%progbits,1
ARM GAS  /tmp/ccLaWYPJ.s 			page 29


 387              		.align	2
 388              	.LC1:
 389 0000 546D7220 		.ascii	"Tmr Svc\000"
 389      53766300 
 390              		.section	.text.xTimerCreateTimerTask,"ax",%progbits
 391              		.align	1
 392              		.global	xTimerCreateTimerTask
 393              		.syntax unified
 394              		.thumb
 395              		.thumb_func
 396              		.fpu fpv4-sp-d16
 398              	xTimerCreateTimerTask:
 399              	.LFB4:
 228:Middlewares/Third_Party/FreeRTOS/Source/timers.c **** BaseType_t xReturn = pdFAIL;
 400              		.loc 1 228 1 is_stmt 1 view -0
 401              		.cfi_startproc
 402              		@ args = 0, pretend = 0, frame = 16
 403              		@ frame_needed = 0, uses_anonymous_args = 0
 404 0000 10B5     		push	{r4, lr}
 405              	.LCFI6:
 406              		.cfi_def_cfa_offset 8
 407              		.cfi_offset 4, -8
 408              		.cfi_offset 14, -4
 409 0002 88B0     		sub	sp, sp, #32
 410              	.LCFI7:
 411              		.cfi_def_cfa_offset 40
 229:Middlewares/Third_Party/FreeRTOS/Source/timers.c **** 
 412              		.loc 1 229 1 view .LVU98
 413              	.LVL31:
 235:Middlewares/Third_Party/FreeRTOS/Source/timers.c **** 
 414              		.loc 1 235 2 view .LVU99
 415 0004 FFF7FEFF 		bl	prvCheckForValidListAndQueue
 416              	.LVL32:
 237:Middlewares/Third_Party/FreeRTOS/Source/timers.c **** 	{
 417              		.loc 1 237 2 view .LVU100
 237:Middlewares/Third_Party/FreeRTOS/Source/timers.c **** 	{
 418              		.loc 1 237 18 is_stmt 0 view .LVU101
 419 0008 124B     		ldr	r3, .L35
 420 000a 1B68     		ldr	r3, [r3]
 237:Middlewares/Third_Party/FreeRTOS/Source/timers.c **** 	{
 421              		.loc 1 237 4 view .LVU102
 422 000c CBB1     		cbz	r3, .L30
 423              	.LBB46:
 241:Middlewares/Third_Party/FreeRTOS/Source/timers.c **** 			StackType_t *pxTimerTaskStackBuffer = NULL;
 424              		.loc 1 241 4 is_stmt 1 view .LVU103
 241:Middlewares/Third_Party/FreeRTOS/Source/timers.c **** 			StackType_t *pxTimerTaskStackBuffer = NULL;
 425              		.loc 1 241 18 is_stmt 0 view .LVU104
 426 000e 0024     		movs	r4, #0
 427 0010 0594     		str	r4, [sp, #20]
 242:Middlewares/Third_Party/FreeRTOS/Source/timers.c **** 			uint32_t ulTimerTaskStackSize;
 428              		.loc 1 242 4 is_stmt 1 view .LVU105
 242:Middlewares/Third_Party/FreeRTOS/Source/timers.c **** 			uint32_t ulTimerTaskStackSize;
 429              		.loc 1 242 17 is_stmt 0 view .LVU106
 430 0012 0694     		str	r4, [sp, #24]
 243:Middlewares/Third_Party/FreeRTOS/Source/timers.c **** 
 431              		.loc 1 243 4 is_stmt 1 view .LVU107
 245:Middlewares/Third_Party/FreeRTOS/Source/timers.c **** 			xTimerTaskHandle = xTaskCreateStatic(	prvTimerTask,
ARM GAS  /tmp/ccLaWYPJ.s 			page 30


 432              		.loc 1 245 4 view .LVU108
 433 0014 07AA     		add	r2, sp, #28
 434 0016 06A9     		add	r1, sp, #24
 435 0018 05A8     		add	r0, sp, #20
 436 001a FFF7FEFF 		bl	vApplicationGetTimerTaskMemory
 437              	.LVL33:
 246:Middlewares/Third_Party/FreeRTOS/Source/timers.c **** 													configTIMER_SERVICE_TASK_NAME,
 438              		.loc 1 246 4 view .LVU109
 246:Middlewares/Third_Party/FreeRTOS/Source/timers.c **** 													configTIMER_SERVICE_TASK_NAME,
 439              		.loc 1 246 23 is_stmt 0 view .LVU110
 440 001e 059B     		ldr	r3, [sp, #20]
 441 0020 0293     		str	r3, [sp, #8]
 442 0022 069B     		ldr	r3, [sp, #24]
 443 0024 0193     		str	r3, [sp, #4]
 444 0026 0223     		movs	r3, #2
 445 0028 0093     		str	r3, [sp]
 446 002a 2346     		mov	r3, r4
 447 002c 079A     		ldr	r2, [sp, #28]
 448 002e 0A49     		ldr	r1, .L35+4
 449 0030 0A48     		ldr	r0, .L35+8
 450 0032 FFF7FEFF 		bl	xTaskCreateStatic
 451              	.LVL34:
 246:Middlewares/Third_Party/FreeRTOS/Source/timers.c **** 													configTIMER_SERVICE_TASK_NAME,
 452              		.loc 1 246 21 view .LVU111
 453 0036 0A4A     		ldr	r2, .L35+12
 454 0038 1060     		str	r0, [r2]
 254:Middlewares/Third_Party/FreeRTOS/Source/timers.c **** 			{
 455              		.loc 1 254 4 is_stmt 1 view .LVU112
 254:Middlewares/Third_Party/FreeRTOS/Source/timers.c **** 			{
 456              		.loc 1 254 6 is_stmt 0 view .LVU113
 457 003a 10B1     		cbz	r0, .L30
 458              	.LBE46:
 277:Middlewares/Third_Party/FreeRTOS/Source/timers.c **** /*-----------------------------------------------------------*/
 459              		.loc 1 277 1 view .LVU114
 460 003c 0120     		movs	r0, #1
 461 003e 08B0     		add	sp, sp, #32
 462              	.LCFI8:
 463              		.cfi_remember_state
 464              		.cfi_def_cfa_offset 8
 465              		@ sp needed
 466 0040 10BD     		pop	{r4, pc}
 467              	.L30:
 468              	.LCFI9:
 469              		.cfi_restore_state
 470              	.LVL35:
 275:Middlewares/Third_Party/FreeRTOS/Source/timers.c **** 	return xReturn;
 471              		.loc 1 275 2 is_stmt 1 view .LVU115
 472              	.LBB47:
 473              	.LBI47:
 191:Middlewares/Third_Party/FreeRTOS/Source/portable/GCC/ARM_CM4F/portmacro.h **** {
 474              		.loc 2 191 30 view .LVU116
 475              	.LBB48:
 193:Middlewares/Third_Party/FreeRTOS/Source/portable/GCC/ARM_CM4F/portmacro.h **** 
 476              		.loc 2 193 1 view .LVU117
 477              		.loc 2 195 2 view .LVU118
 478              		.syntax unified
 479              	@ 195 "Middlewares/Third_Party/FreeRTOS/Source/portable/GCC/ARM_CM4F/portmacro.h" 1
ARM GAS  /tmp/ccLaWYPJ.s 			page 31


 480 0042 4FF05003 			mov r3, #80												
 481 0046 83F31188 		msr basepri, r3											
 482 004a BFF36F8F 		isb														
 483 004e BFF34F8F 		dsb														
 484              	
 485              	@ 0 "" 2
 486              	.LVL36:
 487              		.thumb
 488              		.syntax unified
 489              	.L32:
 490              		.loc 2 195 2 is_stmt 0 view .LVU119
 491              	.LBE48:
 492              	.LBE47:
 275:Middlewares/Third_Party/FreeRTOS/Source/timers.c **** 	return xReturn;
 493              		.loc 1 275 2 is_stmt 1 discriminator 1 view .LVU120
 275:Middlewares/Third_Party/FreeRTOS/Source/timers.c **** 	return xReturn;
 494              		.loc 1 275 2 discriminator 1 view .LVU121
 275:Middlewares/Third_Party/FreeRTOS/Source/timers.c **** 	return xReturn;
 495              		.loc 1 275 2 discriminator 1 view .LVU122
 496 0052 FEE7     		b	.L32
 497              	.L36:
 498              		.align	2
 499              	.L35:
 500 0054 00000000 		.word	.LANCHOR2
 501 0058 00000000 		.word	.LC1
 502 005c 00000000 		.word	prvTimerTask
 503 0060 00000000 		.word	.LANCHOR7
 504              		.cfi_endproc
 505              	.LFE4:
 507              		.section	.text.xTimerCreate,"ax",%progbits
 508              		.align	1
 509              		.global	xTimerCreate
 510              		.syntax unified
 511              		.thumb
 512              		.thumb_func
 513              		.fpu fpv4-sp-d16
 515              	xTimerCreate:
 516              	.LVL37:
 517              	.LFB5:
 287:Middlewares/Third_Party/FreeRTOS/Source/timers.c **** 	Timer_t *pxNewTimer;
 518              		.loc 1 287 2 view -0
 519              		.cfi_startproc
 520              		@ args = 4, pretend = 0, frame = 0
 521              		@ frame_needed = 0, uses_anonymous_args = 0
 287:Middlewares/Third_Party/FreeRTOS/Source/timers.c **** 	Timer_t *pxNewTimer;
 522              		.loc 1 287 2 is_stmt 0 view .LVU124
 523 0000 2DE9F041 		push	{r4, r5, r6, r7, r8, lr}
 524              	.LCFI10:
 525              		.cfi_def_cfa_offset 24
 526              		.cfi_offset 4, -24
 527              		.cfi_offset 5, -20
 528              		.cfi_offset 6, -16
 529              		.cfi_offset 7, -12
 530              		.cfi_offset 8, -8
 531              		.cfi_offset 14, -4
 532 0004 82B0     		sub	sp, sp, #8
 533              	.LCFI11:
ARM GAS  /tmp/ccLaWYPJ.s 			page 32


 534              		.cfi_def_cfa_offset 32
 535 0006 0446     		mov	r4, r0
 536 0008 8846     		mov	r8, r1
 537 000a 1746     		mov	r7, r2
 538 000c 1D46     		mov	r5, r3
 288:Middlewares/Third_Party/FreeRTOS/Source/timers.c **** 
 539              		.loc 1 288 2 is_stmt 1 view .LVU125
 290:Middlewares/Third_Party/FreeRTOS/Source/timers.c **** 
 540              		.loc 1 290 3 view .LVU126
 290:Middlewares/Third_Party/FreeRTOS/Source/timers.c **** 
 541              		.loc 1 290 30 is_stmt 0 view .LVU127
 542 000e 2C20     		movs	r0, #44
 543              	.LVL38:
 290:Middlewares/Third_Party/FreeRTOS/Source/timers.c **** 
 544              		.loc 1 290 30 view .LVU128
 545 0010 FFF7FEFF 		bl	pvPortMalloc
 546              	.LVL39:
 292:Middlewares/Third_Party/FreeRTOS/Source/timers.c **** 		{
 547              		.loc 1 292 3 is_stmt 1 view .LVU129
 292:Middlewares/Third_Party/FreeRTOS/Source/timers.c **** 		{
 548              		.loc 1 292 5 is_stmt 0 view .LVU130
 549 0014 0646     		mov	r6, r0
 550 0016 58B1     		cbz	r0, .L37
 297:Middlewares/Third_Party/FreeRTOS/Source/timers.c **** 			prvInitialiseNewTimer( pcTimerName, xTimerPeriodInTicks, uxAutoReload, pvTimerID, pxCallbackFunc
 551              		.loc 1 297 4 is_stmt 1 view .LVU131
 297:Middlewares/Third_Party/FreeRTOS/Source/timers.c **** 			prvInitialiseNewTimer( pcTimerName, xTimerPeriodInTicks, uxAutoReload, pvTimerID, pxCallbackFunc
 552              		.loc 1 297 25 is_stmt 0 view .LVU132
 553 0018 0023     		movs	r3, #0
 554 001a 80F82830 		strb	r3, [r0, #40]
 298:Middlewares/Third_Party/FreeRTOS/Source/timers.c **** 		}
 555              		.loc 1 298 4 is_stmt 1 view .LVU133
 556 001e 0190     		str	r0, [sp, #4]
 557 0020 089B     		ldr	r3, [sp, #32]
 558 0022 0093     		str	r3, [sp]
 559 0024 2B46     		mov	r3, r5
 560 0026 3A46     		mov	r2, r7
 561 0028 4146     		mov	r1, r8
 562 002a 2046     		mov	r0, r4
 563              	.LVL40:
 298:Middlewares/Third_Party/FreeRTOS/Source/timers.c **** 		}
 564              		.loc 1 298 4 is_stmt 0 view .LVU134
 565 002c FFF7FEFF 		bl	prvInitialiseNewTimer
 566              	.LVL41:
 301:Middlewares/Third_Party/FreeRTOS/Source/timers.c **** 	}
 567              		.loc 1 301 3 is_stmt 1 view .LVU135
 568              	.L37:
 302:Middlewares/Third_Party/FreeRTOS/Source/timers.c **** 
 569              		.loc 1 302 2 is_stmt 0 view .LVU136
 570 0030 3046     		mov	r0, r6
 571 0032 02B0     		add	sp, sp, #8
 572              	.LCFI12:
 573              		.cfi_def_cfa_offset 24
 574              		@ sp needed
 575 0034 BDE8F081 		pop	{r4, r5, r6, r7, r8, pc}
 302:Middlewares/Third_Party/FreeRTOS/Source/timers.c **** 
 576              		.loc 1 302 2 view .LVU137
 577              		.cfi_endproc
ARM GAS  /tmp/ccLaWYPJ.s 			page 33


 578              	.LFE5:
 580              		.section	.text.xTimerCreateStatic,"ax",%progbits
 581              		.align	1
 582              		.global	xTimerCreateStatic
 583              		.syntax unified
 584              		.thumb
 585              		.thumb_func
 586              		.fpu fpv4-sp-d16
 588              	xTimerCreateStatic:
 589              	.LVL42:
 590              	.LFB6:
 315:Middlewares/Third_Party/FreeRTOS/Source/timers.c **** 	Timer_t *pxNewTimer;
 591              		.loc 1 315 2 is_stmt 1 view -0
 592              		.cfi_startproc
 593              		@ args = 8, pretend = 0, frame = 8
 594              		@ frame_needed = 0, uses_anonymous_args = 0
 315:Middlewares/Third_Party/FreeRTOS/Source/timers.c **** 	Timer_t *pxNewTimer;
 595              		.loc 1 315 2 is_stmt 0 view .LVU139
 596 0000 30B5     		push	{r4, r5, lr}
 597              	.LCFI13:
 598              		.cfi_def_cfa_offset 12
 599              		.cfi_offset 4, -12
 600              		.cfi_offset 5, -8
 601              		.cfi_offset 14, -4
 602 0002 85B0     		sub	sp, sp, #20
 603              	.LCFI14:
 604              		.cfi_def_cfa_offset 32
 605 0004 099C     		ldr	r4, [sp, #36]
 316:Middlewares/Third_Party/FreeRTOS/Source/timers.c **** 
 606              		.loc 1 316 2 is_stmt 1 view .LVU140
 607              	.LBB49:
 323:Middlewares/Third_Party/FreeRTOS/Source/timers.c **** 			configASSERT( xSize == sizeof( Timer_t ) );
 608              		.loc 1 323 4 view .LVU141
 323:Middlewares/Third_Party/FreeRTOS/Source/timers.c **** 			configASSERT( xSize == sizeof( Timer_t ) );
 609              		.loc 1 323 20 is_stmt 0 view .LVU142
 610 0006 2C25     		movs	r5, #44
 611 0008 0395     		str	r5, [sp, #12]
 324:Middlewares/Third_Party/FreeRTOS/Source/timers.c **** 			( void ) xSize; /* Keeps lint quiet when configASSERT() is not defined. */
 612              		.loc 1 324 4 is_stmt 1 view .LVU143
 613 000a 039D     		ldr	r5, [sp, #12]
 614 000c 2C2D     		cmp	r5, #44
 615 000e 08D0     		beq	.L41
 324:Middlewares/Third_Party/FreeRTOS/Source/timers.c **** 			( void ) xSize; /* Keeps lint quiet when configASSERT() is not defined. */
 616              		.loc 1 324 4 view .LVU144
 617              	.LBB50:
 618              	.LBI50:
 191:Middlewares/Third_Party/FreeRTOS/Source/portable/GCC/ARM_CM4F/portmacro.h **** {
 619              		.loc 2 191 30 view .LVU145
 620              	.LBB51:
 193:Middlewares/Third_Party/FreeRTOS/Source/portable/GCC/ARM_CM4F/portmacro.h **** 
 621              		.loc 2 193 1 view .LVU146
 622              		.loc 2 195 2 view .LVU147
 623              		.syntax unified
 624              	@ 195 "Middlewares/Third_Party/FreeRTOS/Source/portable/GCC/ARM_CM4F/portmacro.h" 1
 625 0010 4FF05003 			mov r3, #80												
 626 0014 83F31188 		msr basepri, r3											
 627 0018 BFF36F8F 		isb														
ARM GAS  /tmp/ccLaWYPJ.s 			page 34


 628 001c BFF34F8F 		dsb														
 629              	
 630              	@ 0 "" 2
 631              	.LVL43:
 632              		.thumb
 633              		.syntax unified
 634              	.L42:
 635              		.loc 2 195 2 is_stmt 0 view .LVU148
 636              	.LBE51:
 637              	.LBE50:
 324:Middlewares/Third_Party/FreeRTOS/Source/timers.c **** 			( void ) xSize; /* Keeps lint quiet when configASSERT() is not defined. */
 638              		.loc 1 324 4 is_stmt 1 discriminator 1 view .LVU149
 324:Middlewares/Third_Party/FreeRTOS/Source/timers.c **** 			( void ) xSize; /* Keeps lint quiet when configASSERT() is not defined. */
 639              		.loc 1 324 4 discriminator 1 view .LVU150
 324:Middlewares/Third_Party/FreeRTOS/Source/timers.c **** 			( void ) xSize; /* Keeps lint quiet when configASSERT() is not defined. */
 640              		.loc 1 324 4 discriminator 1 view .LVU151
 641 0020 FEE7     		b	.L42
 642              	.LVL44:
 643              	.L41:
 324:Middlewares/Third_Party/FreeRTOS/Source/timers.c **** 			( void ) xSize; /* Keeps lint quiet when configASSERT() is not defined. */
 644              		.loc 1 324 46 discriminator 2 view .LVU152
 325:Middlewares/Third_Party/FreeRTOS/Source/timers.c **** 		}
 645              		.loc 1 325 4 discriminator 2 view .LVU153
 646 0022 039D     		ldr	r5, [sp, #12]
 647              	.LBE49:
 330:Middlewares/Third_Party/FreeRTOS/Source/timers.c **** 		pxNewTimer = ( Timer_t * ) pxTimerBuffer; /*lint !e740 !e9087 StaticTimer_t is a pointer to a Tim
 648              		.loc 1 330 3 discriminator 2 view .LVU154
 649 0024 54B1     		cbz	r4, .L46
 330:Middlewares/Third_Party/FreeRTOS/Source/timers.c **** 		pxNewTimer = ( Timer_t * ) pxTimerBuffer; /*lint !e740 !e9087 StaticTimer_t is a pointer to a Tim
 650              		.loc 1 330 32 view .LVU155
 331:Middlewares/Third_Party/FreeRTOS/Source/timers.c **** 
 651              		.loc 1 331 3 view .LVU156
 652              	.LVL45:
 333:Middlewares/Third_Party/FreeRTOS/Source/timers.c **** 		{
 653              		.loc 1 333 3 view .LVU157
 338:Middlewares/Third_Party/FreeRTOS/Source/timers.c **** 
 654              		.loc 1 338 4 view .LVU158
 338:Middlewares/Third_Party/FreeRTOS/Source/timers.c **** 
 655              		.loc 1 338 25 is_stmt 0 view .LVU159
 656 0026 0225     		movs	r5, #2
 657 0028 84F82850 		strb	r5, [r4, #40]
 340:Middlewares/Third_Party/FreeRTOS/Source/timers.c **** 		}
 658              		.loc 1 340 4 is_stmt 1 view .LVU160
 659 002c 0194     		str	r4, [sp, #4]
 660 002e 089D     		ldr	r5, [sp, #32]
 661 0030 0095     		str	r5, [sp]
 662 0032 FFF7FEFF 		bl	prvInitialiseNewTimer
 663              	.LVL46:
 343:Middlewares/Third_Party/FreeRTOS/Source/timers.c **** 	}
 664              		.loc 1 343 3 view .LVU161
 344:Middlewares/Third_Party/FreeRTOS/Source/timers.c **** 
 665              		.loc 1 344 2 is_stmt 0 view .LVU162
 666 0036 2046     		mov	r0, r4
 667 0038 05B0     		add	sp, sp, #20
 668              	.LCFI15:
 669              		.cfi_remember_state
 670              		.cfi_def_cfa_offset 12
ARM GAS  /tmp/ccLaWYPJ.s 			page 35


 671              		@ sp needed
 672 003a 30BD     		pop	{r4, r5, pc}
 673              	.LVL47:
 674              	.L46:
 675              	.LCFI16:
 676              		.cfi_restore_state
 330:Middlewares/Third_Party/FreeRTOS/Source/timers.c **** 		pxNewTimer = ( Timer_t * ) pxTimerBuffer; /*lint !e740 !e9087 StaticTimer_t is a pointer to a Tim
 677              		.loc 1 330 3 is_stmt 1 view .LVU163
 678              	.LBB52:
 679              	.LBI52:
 191:Middlewares/Third_Party/FreeRTOS/Source/portable/GCC/ARM_CM4F/portmacro.h **** {
 680              		.loc 2 191 30 view .LVU164
 681              	.LBB53:
 193:Middlewares/Third_Party/FreeRTOS/Source/portable/GCC/ARM_CM4F/portmacro.h **** 
 682              		.loc 2 193 1 view .LVU165
 683              		.loc 2 195 2 view .LVU166
 684              		.syntax unified
 685              	@ 195 "Middlewares/Third_Party/FreeRTOS/Source/portable/GCC/ARM_CM4F/portmacro.h" 1
 686 003c 4FF05003 			mov r3, #80												
 687 0040 83F31188 		msr basepri, r3											
 688 0044 BFF36F8F 		isb														
 689 0048 BFF34F8F 		dsb														
 690              	
 691              	@ 0 "" 2
 692              	.LVL48:
 693              		.thumb
 694              		.syntax unified
 695              	.L44:
 696              		.loc 2 195 2 is_stmt 0 view .LVU167
 697              	.LBE53:
 698              	.LBE52:
 330:Middlewares/Third_Party/FreeRTOS/Source/timers.c **** 		pxNewTimer = ( Timer_t * ) pxTimerBuffer; /*lint !e740 !e9087 StaticTimer_t is a pointer to a Tim
 699              		.loc 1 330 3 is_stmt 1 discriminator 2 view .LVU168
 330:Middlewares/Third_Party/FreeRTOS/Source/timers.c **** 		pxNewTimer = ( Timer_t * ) pxTimerBuffer; /*lint !e740 !e9087 StaticTimer_t is a pointer to a Tim
 700              		.loc 1 330 3 discriminator 2 view .LVU169
 330:Middlewares/Third_Party/FreeRTOS/Source/timers.c **** 		pxNewTimer = ( Timer_t * ) pxTimerBuffer; /*lint !e740 !e9087 StaticTimer_t is a pointer to a Tim
 701              		.loc 1 330 3 discriminator 2 view .LVU170
 702 004c FEE7     		b	.L44
 703              		.cfi_endproc
 704              	.LFE6:
 706              		.section	.text.xTimerGenericCommand,"ax",%progbits
 707              		.align	1
 708              		.global	xTimerGenericCommand
 709              		.syntax unified
 710              		.thumb
 711              		.thumb_func
 712              		.fpu fpv4-sp-d16
 714              	xTimerGenericCommand:
 715              	.LVL49:
 716              	.LFB8:
 382:Middlewares/Third_Party/FreeRTOS/Source/timers.c **** BaseType_t xReturn = pdFAIL;
 717              		.loc 1 382 1 view -0
 718              		.cfi_startproc
 719              		@ args = 4, pretend = 0, frame = 16
 720              		@ frame_needed = 0, uses_anonymous_args = 0
 383:Middlewares/Third_Party/FreeRTOS/Source/timers.c **** DaemonTaskMessage_t xMessage;
 721              		.loc 1 383 1 view .LVU172
ARM GAS  /tmp/ccLaWYPJ.s 			page 36


 384:Middlewares/Third_Party/FreeRTOS/Source/timers.c **** 
 722              		.loc 1 384 1 view .LVU173
 386:Middlewares/Third_Party/FreeRTOS/Source/timers.c **** 
 723              		.loc 1 386 2 view .LVU174
 724 0000 C0B1     		cbz	r0, .L56
 382:Middlewares/Third_Party/FreeRTOS/Source/timers.c **** BaseType_t xReturn = pdFAIL;
 725              		.loc 1 382 1 is_stmt 0 discriminator 2 view .LVU175
 726 0002 10B5     		push	{r4, lr}
 727              	.LCFI17:
 728              		.cfi_def_cfa_offset 8
 729              		.cfi_offset 4, -8
 730              		.cfi_offset 14, -4
 731 0004 84B0     		sub	sp, sp, #16
 732              	.LCFI18:
 733              		.cfi_def_cfa_offset 24
 734 0006 1446     		mov	r4, r2
 735 0008 1A46     		mov	r2, r3
 736              	.LVL50:
 382:Middlewares/Third_Party/FreeRTOS/Source/timers.c **** BaseType_t xReturn = pdFAIL;
 737              		.loc 1 382 1 discriminator 2 view .LVU176
 738 000a 0346     		mov	r3, r0
 739              	.LVL51:
 386:Middlewares/Third_Party/FreeRTOS/Source/timers.c **** 
 740              		.loc 1 386 24 is_stmt 1 discriminator 2 view .LVU177
 390:Middlewares/Third_Party/FreeRTOS/Source/timers.c **** 	{
 741              		.loc 1 390 2 discriminator 2 view .LVU178
 390:Middlewares/Third_Party/FreeRTOS/Source/timers.c **** 	{
 742              		.loc 1 390 18 is_stmt 0 discriminator 2 view .LVU179
 743 000c 1648     		ldr	r0, .L58
 744              	.LVL52:
 390:Middlewares/Third_Party/FreeRTOS/Source/timers.c **** 	{
 745              		.loc 1 390 18 discriminator 2 view .LVU180
 746 000e 0068     		ldr	r0, [r0]
 390:Middlewares/Third_Party/FreeRTOS/Source/timers.c **** 	{
 747              		.loc 1 390 4 discriminator 2 view .LVU181
 748 0010 38B3     		cbz	r0, .L53
 393:Middlewares/Third_Party/FreeRTOS/Source/timers.c **** 		xMessage.u.xTimerParameters.xMessageValue = xOptionalValue;
 749              		.loc 1 393 3 is_stmt 1 view .LVU182
 393:Middlewares/Third_Party/FreeRTOS/Source/timers.c **** 		xMessage.u.xTimerParameters.xMessageValue = xOptionalValue;
 750              		.loc 1 393 23 is_stmt 0 view .LVU183
 751 0012 0091     		str	r1, [sp]
 394:Middlewares/Third_Party/FreeRTOS/Source/timers.c **** 		xMessage.u.xTimerParameters.pxTimer = xTimer;
 752              		.loc 1 394 3 is_stmt 1 view .LVU184
 394:Middlewares/Third_Party/FreeRTOS/Source/timers.c **** 		xMessage.u.xTimerParameters.pxTimer = xTimer;
 753              		.loc 1 394 45 is_stmt 0 view .LVU185
 754 0014 0194     		str	r4, [sp, #4]
 395:Middlewares/Third_Party/FreeRTOS/Source/timers.c **** 
 755              		.loc 1 395 3 is_stmt 1 view .LVU186
 395:Middlewares/Third_Party/FreeRTOS/Source/timers.c **** 
 756              		.loc 1 395 39 is_stmt 0 view .LVU187
 757 0016 0293     		str	r3, [sp, #8]
 397:Middlewares/Third_Party/FreeRTOS/Source/timers.c **** 		{
 758              		.loc 1 397 3 is_stmt 1 view .LVU188
 397:Middlewares/Third_Party/FreeRTOS/Source/timers.c **** 		{
 759              		.loc 1 397 5 is_stmt 0 view .LVU189
 760 0018 0529     		cmp	r1, #5
 761 001a 1CDC     		bgt	.L51
ARM GAS  /tmp/ccLaWYPJ.s 			page 37


 399:Middlewares/Third_Party/FreeRTOS/Source/timers.c **** 			{
 762              		.loc 1 399 4 is_stmt 1 view .LVU190
 399:Middlewares/Third_Party/FreeRTOS/Source/timers.c **** 			{
 763              		.loc 1 399 8 is_stmt 0 view .LVU191
 764 001c FFF7FEFF 		bl	xTaskGetSchedulerState
 765              	.LVL53:
 399:Middlewares/Third_Party/FreeRTOS/Source/timers.c **** 			{
 766              		.loc 1 399 6 view .LVU192
 767 0020 0228     		cmp	r0, #2
 768 0022 10D0     		beq	.L57
 405:Middlewares/Third_Party/FreeRTOS/Source/timers.c **** 			}
 769              		.loc 1 405 5 is_stmt 1 view .LVU193
 405:Middlewares/Third_Party/FreeRTOS/Source/timers.c **** 			}
 770              		.loc 1 405 15 is_stmt 0 view .LVU194
 771 0024 0023     		movs	r3, #0
 772 0026 1A46     		mov	r2, r3
 773 0028 6946     		mov	r1, sp
 774 002a 0F48     		ldr	r0, .L58
 775 002c 0068     		ldr	r0, [r0]
 776 002e FFF7FEFF 		bl	xQueueGenericSend
 777              	.LVL54:
 405:Middlewares/Third_Party/FreeRTOS/Source/timers.c **** 			}
 778              		.loc 1 405 15 view .LVU195
 779 0032 14E0     		b	.L47
 780              	.LVL55:
 781              	.L56:
 782              	.LCFI19:
 783              		.cfi_def_cfa_offset 0
 784              		.cfi_restore 4
 785              		.cfi_restore 14
 386:Middlewares/Third_Party/FreeRTOS/Source/timers.c **** 
 786              		.loc 1 386 2 is_stmt 1 view .LVU196
 787              	.LBB54:
 788              	.LBI54:
 191:Middlewares/Third_Party/FreeRTOS/Source/portable/GCC/ARM_CM4F/portmacro.h **** {
 789              		.loc 2 191 30 view .LVU197
 790              	.LBB55:
 193:Middlewares/Third_Party/FreeRTOS/Source/portable/GCC/ARM_CM4F/portmacro.h **** 
 791              		.loc 2 193 1 view .LVU198
 792              		.loc 2 195 2 view .LVU199
 793              		.syntax unified
 794              	@ 195 "Middlewares/Third_Party/FreeRTOS/Source/portable/GCC/ARM_CM4F/portmacro.h" 1
 795 0034 4FF05003 			mov r3, #80												
 796 0038 83F31188 		msr basepri, r3											
 797 003c BFF36F8F 		isb														
 798 0040 BFF34F8F 		dsb														
 799              	
 800              	@ 0 "" 2
 801              	.LVL56:
 802              		.thumb
 803              		.syntax unified
 804              	.L49:
 805              		.loc 2 195 2 is_stmt 0 view .LVU200
 806              	.LBE55:
 807              	.LBE54:
 386:Middlewares/Third_Party/FreeRTOS/Source/timers.c **** 
 808              		.loc 1 386 2 is_stmt 1 discriminator 1 view .LVU201
ARM GAS  /tmp/ccLaWYPJ.s 			page 38


 386:Middlewares/Third_Party/FreeRTOS/Source/timers.c **** 
 809              		.loc 1 386 2 discriminator 1 view .LVU202
 386:Middlewares/Third_Party/FreeRTOS/Source/timers.c **** 
 810              		.loc 1 386 2 discriminator 1 view .LVU203
 811 0044 FEE7     		b	.L49
 812              	.LVL57:
 813              	.L57:
 814              	.LCFI20:
 815              		.cfi_def_cfa_offset 24
 816              		.cfi_offset 4, -8
 817              		.cfi_offset 14, -4
 401:Middlewares/Third_Party/FreeRTOS/Source/timers.c **** 			}
 818              		.loc 1 401 5 view .LVU204
 401:Middlewares/Third_Party/FreeRTOS/Source/timers.c **** 			}
 819              		.loc 1 401 15 is_stmt 0 view .LVU205
 820 0046 0023     		movs	r3, #0
 821 0048 069A     		ldr	r2, [sp, #24]
 822 004a 6946     		mov	r1, sp
 823 004c 0648     		ldr	r0, .L58
 824 004e 0068     		ldr	r0, [r0]
 825 0050 FFF7FEFF 		bl	xQueueGenericSend
 826              	.LVL58:
 401:Middlewares/Third_Party/FreeRTOS/Source/timers.c **** 			}
 827              		.loc 1 401 15 view .LVU206
 828 0054 03E0     		b	.L47
 829              	.LVL59:
 830              	.L51:
 410:Middlewares/Third_Party/FreeRTOS/Source/timers.c **** 		}
 831              		.loc 1 410 4 is_stmt 1 view .LVU207
 410:Middlewares/Third_Party/FreeRTOS/Source/timers.c **** 		}
 832              		.loc 1 410 14 is_stmt 0 view .LVU208
 833 0056 0023     		movs	r3, #0
 834              	.LVL60:
 410:Middlewares/Third_Party/FreeRTOS/Source/timers.c **** 		}
 835              		.loc 1 410 14 view .LVU209
 836 0058 6946     		mov	r1, sp
 837              	.LVL61:
 410:Middlewares/Third_Party/FreeRTOS/Source/timers.c **** 		}
 838              		.loc 1 410 14 view .LVU210
 839 005a FFF7FEFF 		bl	xQueueGenericSendFromISR
 840              	.LVL62:
 841              	.L47:
 421:Middlewares/Third_Party/FreeRTOS/Source/timers.c **** /*-----------------------------------------------------------*/
 842              		.loc 1 421 1 view .LVU211
 843 005e 04B0     		add	sp, sp, #16
 844              	.LCFI21:
 845              		.cfi_remember_state
 846              		.cfi_def_cfa_offset 8
 847              		@ sp needed
 848 0060 10BD     		pop	{r4, pc}
 849              	.LVL63:
 850              	.L53:
 851              	.LCFI22:
 852              		.cfi_restore_state
 383:Middlewares/Third_Party/FreeRTOS/Source/timers.c **** DaemonTaskMessage_t xMessage;
 853              		.loc 1 383 12 view .LVU212
 854 0062 0020     		movs	r0, #0
ARM GAS  /tmp/ccLaWYPJ.s 			page 39


 417:Middlewares/Third_Party/FreeRTOS/Source/timers.c **** 	}
 855              		.loc 1 417 27 is_stmt 1 view .LVU213
 420:Middlewares/Third_Party/FreeRTOS/Source/timers.c **** }
 856              		.loc 1 420 2 view .LVU214
 420:Middlewares/Third_Party/FreeRTOS/Source/timers.c **** }
 857              		.loc 1 420 9 is_stmt 0 view .LVU215
 858 0064 FBE7     		b	.L47
 859              	.L59:
 860 0066 00BF     		.align	2
 861              	.L58:
 862 0068 00000000 		.word	.LANCHOR2
 863              		.cfi_endproc
 864              	.LFE8:
 866              		.section	.text.prvSwitchTimerLists,"ax",%progbits
 867              		.align	1
 868              		.syntax unified
 869              		.thumb
 870              		.thumb_func
 871              		.fpu fpv4-sp-d16
 873              	prvSwitchTimerLists:
 874              	.LFB21:
 858:Middlewares/Third_Party/FreeRTOS/Source/timers.c **** TickType_t xNextExpireTime, xReloadTime;
 875              		.loc 1 858 1 is_stmt 1 view -0
 876              		.cfi_startproc
 877              		@ args = 0, pretend = 0, frame = 0
 878              		@ frame_needed = 0, uses_anonymous_args = 0
 879 0000 70B5     		push	{r4, r5, r6, lr}
 880              	.LCFI23:
 881              		.cfi_def_cfa_offset 16
 882              		.cfi_offset 4, -16
 883              		.cfi_offset 5, -12
 884              		.cfi_offset 6, -8
 885              		.cfi_offset 14, -4
 886 0002 82B0     		sub	sp, sp, #8
 887              	.LCFI24:
 888              		.cfi_def_cfa_offset 24
 859:Middlewares/Third_Party/FreeRTOS/Source/timers.c **** List_t *pxTemp;
 889              		.loc 1 859 1 view .LVU217
 860:Middlewares/Third_Party/FreeRTOS/Source/timers.c **** Timer_t *pxTimer;
 890              		.loc 1 860 1 view .LVU218
 861:Middlewares/Third_Party/FreeRTOS/Source/timers.c **** BaseType_t xResult;
 891              		.loc 1 861 1 view .LVU219
 862:Middlewares/Third_Party/FreeRTOS/Source/timers.c **** 
 892              		.loc 1 862 1 view .LVU220
 868:Middlewares/Third_Party/FreeRTOS/Source/timers.c **** 	{
 893              		.loc 1 868 2 view .LVU221
 894              	.L62:
 906:Middlewares/Third_Party/FreeRTOS/Source/timers.c **** 		}
 895              		.loc 1 906 28 view .LVU222
 868:Middlewares/Third_Party/FreeRTOS/Source/timers.c **** 	{
 896              		.loc 1 868 7 view .LVU223
 868:Middlewares/Third_Party/FreeRTOS/Source/timers.c **** 	{
 897              		.loc 1 868 9 is_stmt 0 view .LVU224
 898 0004 1B4B     		ldr	r3, .L69
 899 0006 1B68     		ldr	r3, [r3]
 900 0008 1A68     		ldr	r2, [r3]
 868:Middlewares/Third_Party/FreeRTOS/Source/timers.c **** 	{
ARM GAS  /tmp/ccLaWYPJ.s 			page 40


 901              		.loc 1 868 7 view .LVU225
 902 000a 62B3     		cbz	r2, .L68
 870:Middlewares/Third_Party/FreeRTOS/Source/timers.c **** 
 903              		.loc 1 870 3 is_stmt 1 view .LVU226
 870:Middlewares/Third_Party/FreeRTOS/Source/timers.c **** 
 904              		.loc 1 870 21 is_stmt 0 view .LVU227
 905 000c DB68     		ldr	r3, [r3, #12]
 870:Middlewares/Third_Party/FreeRTOS/Source/timers.c **** 
 906              		.loc 1 870 19 view .LVU228
 907 000e 1E68     		ldr	r6, [r3]
 908              	.LVL64:
 873:Middlewares/Third_Party/FreeRTOS/Source/timers.c **** 		( void ) uxListRemove( &( pxTimer->xTimerListItem ) );
 909              		.loc 1 873 3 is_stmt 1 view .LVU229
 873:Middlewares/Third_Party/FreeRTOS/Source/timers.c **** 		( void ) uxListRemove( &( pxTimer->xTimerListItem ) );
 910              		.loc 1 873 11 is_stmt 0 view .LVU230
 911 0010 DC68     		ldr	r4, [r3, #12]
 912              	.LVL65:
 874:Middlewares/Third_Party/FreeRTOS/Source/timers.c **** 		traceTIMER_EXPIRED( pxTimer );
 913              		.loc 1 874 3 is_stmt 1 view .LVU231
 874:Middlewares/Third_Party/FreeRTOS/Source/timers.c **** 		traceTIMER_EXPIRED( pxTimer );
 914              		.loc 1 874 12 is_stmt 0 view .LVU232
 915 0012 251D     		adds	r5, r4, #4
 916 0014 2846     		mov	r0, r5
 917 0016 FFF7FEFF 		bl	uxListRemove
 918              	.LVL66:
 875:Middlewares/Third_Party/FreeRTOS/Source/timers.c **** 
 919              		.loc 1 875 32 is_stmt 1 view .LVU233
 880:Middlewares/Third_Party/FreeRTOS/Source/timers.c **** 
 920              		.loc 1 880 3 view .LVU234
 880:Middlewares/Third_Party/FreeRTOS/Source/timers.c **** 
 921              		.loc 1 880 10 is_stmt 0 view .LVU235
 922 001a 236A     		ldr	r3, [r4, #32]
 880:Middlewares/Third_Party/FreeRTOS/Source/timers.c **** 
 923              		.loc 1 880 3 view .LVU236
 924 001c 2046     		mov	r0, r4
 925 001e 9847     		blx	r3
 926              	.LVL67:
 882:Middlewares/Third_Party/FreeRTOS/Source/timers.c **** 		{
 927              		.loc 1 882 3 is_stmt 1 view .LVU237
 882:Middlewares/Third_Party/FreeRTOS/Source/timers.c **** 		{
 928              		.loc 1 882 16 is_stmt 0 view .LVU238
 929 0020 94F82830 		ldrb	r3, [r4, #40]	@ zero_extendqisi2
 882:Middlewares/Third_Party/FreeRTOS/Source/timers.c **** 		{
 930              		.loc 1 882 5 view .LVU239
 931 0024 13F0040F 		tst	r3, #4
 932 0028 ECD0     		beq	.L62
 890:Middlewares/Third_Party/FreeRTOS/Source/timers.c **** 			if( xReloadTime > xNextExpireTime )
 933              		.loc 1 890 4 is_stmt 1 view .LVU240
 890:Middlewares/Third_Party/FreeRTOS/Source/timers.c **** 			if( xReloadTime > xNextExpireTime )
 934              		.loc 1 890 45 is_stmt 0 view .LVU241
 935 002a A369     		ldr	r3, [r4, #24]
 890:Middlewares/Third_Party/FreeRTOS/Source/timers.c **** 			if( xReloadTime > xNextExpireTime )
 936              		.loc 1 890 16 view .LVU242
 937 002c 3344     		add	r3, r3, r6
 938              	.LVL68:
 891:Middlewares/Third_Party/FreeRTOS/Source/timers.c **** 			{
 939              		.loc 1 891 4 is_stmt 1 view .LVU243
ARM GAS  /tmp/ccLaWYPJ.s 			page 41


 891:Middlewares/Third_Party/FreeRTOS/Source/timers.c **** 			{
 940              		.loc 1 891 6 is_stmt 0 view .LVU244
 941 002e 9E42     		cmp	r6, r3
 942 0030 07D2     		bcs	.L63
 893:Middlewares/Third_Party/FreeRTOS/Source/timers.c **** 				listSET_LIST_ITEM_OWNER( &( pxTimer->xTimerListItem ), pxTimer );
 943              		.loc 1 893 5 is_stmt 1 view .LVU245
 944 0032 6360     		str	r3, [r4, #4]
 894:Middlewares/Third_Party/FreeRTOS/Source/timers.c **** 				vListInsert( pxCurrentTimerList, &( pxTimer->xTimerListItem ) );
 945              		.loc 1 894 5 view .LVU246
 946 0034 2461     		str	r4, [r4, #16]
 895:Middlewares/Third_Party/FreeRTOS/Source/timers.c **** 			}
 947              		.loc 1 895 5 view .LVU247
 948 0036 2946     		mov	r1, r5
 949 0038 0E4B     		ldr	r3, .L69
 950              	.LVL69:
 895:Middlewares/Third_Party/FreeRTOS/Source/timers.c **** 			}
 951              		.loc 1 895 5 is_stmt 0 view .LVU248
 952 003a 1868     		ldr	r0, [r3]
 953 003c FFF7FEFF 		bl	vListInsert
 954              	.LVL70:
 895:Middlewares/Third_Party/FreeRTOS/Source/timers.c **** 			}
 955              		.loc 1 895 5 view .LVU249
 956 0040 E0E7     		b	.L62
 957              	.LVL71:
 958              	.L63:
 899:Middlewares/Third_Party/FreeRTOS/Source/timers.c **** 				configASSERT( xResult );
 959              		.loc 1 899 5 is_stmt 1 view .LVU250
 899:Middlewares/Third_Party/FreeRTOS/Source/timers.c **** 				configASSERT( xResult );
 960              		.loc 1 899 15 is_stmt 0 view .LVU251
 961 0042 0021     		movs	r1, #0
 962 0044 0091     		str	r1, [sp]
 963 0046 0B46     		mov	r3, r1
 964              	.LVL72:
 899:Middlewares/Third_Party/FreeRTOS/Source/timers.c **** 				configASSERT( xResult );
 965              		.loc 1 899 15 view .LVU252
 966 0048 3246     		mov	r2, r6
 967 004a 2046     		mov	r0, r4
 968 004c FFF7FEFF 		bl	xTimerGenericCommand
 969              	.LVL73:
 900:Middlewares/Third_Party/FreeRTOS/Source/timers.c **** 				( void ) xResult;
 970              		.loc 1 900 5 is_stmt 1 view .LVU253
 971 0050 0028     		cmp	r0, #0
 972 0052 D7D1     		bne	.L62
 900:Middlewares/Third_Party/FreeRTOS/Source/timers.c **** 				( void ) xResult;
 973              		.loc 1 900 5 view .LVU254
 974              	.LBB56:
 975              	.LBI56:
 191:Middlewares/Third_Party/FreeRTOS/Source/portable/GCC/ARM_CM4F/portmacro.h **** {
 976              		.loc 2 191 30 view .LVU255
 977              	.LBB57:
 193:Middlewares/Third_Party/FreeRTOS/Source/portable/GCC/ARM_CM4F/portmacro.h **** 
 978              		.loc 2 193 1 view .LVU256
 979              		.loc 2 195 2 view .LVU257
 980              		.syntax unified
 981              	@ 195 "Middlewares/Third_Party/FreeRTOS/Source/portable/GCC/ARM_CM4F/portmacro.h" 1
 982 0054 4FF05003 			mov r3, #80												
 983 0058 83F31188 		msr basepri, r3											
ARM GAS  /tmp/ccLaWYPJ.s 			page 42


 984 005c BFF36F8F 		isb														
 985 0060 BFF34F8F 		dsb														
 986              	
 987              	@ 0 "" 2
 988              	.LVL74:
 989              		.thumb
 990              		.syntax unified
 991              	.L65:
 992              		.loc 2 195 2 is_stmt 0 view .LVU258
 993              	.LBE57:
 994              	.LBE56:
 900:Middlewares/Third_Party/FreeRTOS/Source/timers.c **** 				( void ) xResult;
 995              		.loc 1 900 5 is_stmt 1 discriminator 1 view .LVU259
 900:Middlewares/Third_Party/FreeRTOS/Source/timers.c **** 				( void ) xResult;
 996              		.loc 1 900 5 discriminator 1 view .LVU260
 900:Middlewares/Third_Party/FreeRTOS/Source/timers.c **** 				( void ) xResult;
 997              		.loc 1 900 5 discriminator 1 view .LVU261
 998 0064 FEE7     		b	.L65
 999              	.LVL75:
 1000              	.L68:
 910:Middlewares/Third_Party/FreeRTOS/Source/timers.c **** 	pxCurrentTimerList = pxOverflowTimerList;
 1001              		.loc 1 910 2 view .LVU262
 911:Middlewares/Third_Party/FreeRTOS/Source/timers.c **** 	pxOverflowTimerList = pxTemp;
 1002              		.loc 1 911 2 view .LVU263
 911:Middlewares/Third_Party/FreeRTOS/Source/timers.c **** 	pxOverflowTimerList = pxTemp;
 1003              		.loc 1 911 21 is_stmt 0 view .LVU264
 1004 0066 044A     		ldr	r2, .L69+4
 1005 0068 1068     		ldr	r0, [r2]
 1006 006a 0249     		ldr	r1, .L69
 1007 006c 0860     		str	r0, [r1]
 912:Middlewares/Third_Party/FreeRTOS/Source/timers.c **** }
 1008              		.loc 1 912 2 is_stmt 1 view .LVU265
 912:Middlewares/Third_Party/FreeRTOS/Source/timers.c **** }
 1009              		.loc 1 912 22 is_stmt 0 view .LVU266
 1010 006e 1360     		str	r3, [r2]
 913:Middlewares/Third_Party/FreeRTOS/Source/timers.c **** /*-----------------------------------------------------------*/
 1011              		.loc 1 913 1 view .LVU267
 1012 0070 02B0     		add	sp, sp, #8
 1013              	.LCFI25:
 1014              		.cfi_def_cfa_offset 16
 1015              		@ sp needed
 1016 0072 70BD     		pop	{r4, r5, r6, pc}
 1017              	.L70:
 1018              		.align	2
 1019              	.L69:
 1020 0074 00000000 		.word	.LANCHOR0
 1021 0078 00000000 		.word	.LANCHOR1
 1022              		.cfi_endproc
 1023              	.LFE21:
 1025              		.section	.text.prvSampleTimeNow,"ax",%progbits
 1026              		.align	1
 1027              		.syntax unified
 1028              		.thumb
 1029              		.thumb_func
 1030              		.fpu fpv4-sp-d16
 1032              	prvSampleTimeNow:
 1033              	.LVL76:
ARM GAS  /tmp/ccLaWYPJ.s 			page 43


 1034              	.LFB18:
 646:Middlewares/Third_Party/FreeRTOS/Source/timers.c **** TickType_t xTimeNow;
 1035              		.loc 1 646 1 is_stmt 1 view -0
 1036              		.cfi_startproc
 1037              		@ args = 0, pretend = 0, frame = 0
 1038              		@ frame_needed = 0, uses_anonymous_args = 0
 646:Middlewares/Third_Party/FreeRTOS/Source/timers.c **** TickType_t xTimeNow;
 1039              		.loc 1 646 1 is_stmt 0 view .LVU269
 1040 0000 38B5     		push	{r3, r4, r5, lr}
 1041              	.LCFI26:
 1042              		.cfi_def_cfa_offset 16
 1043              		.cfi_offset 3, -16
 1044              		.cfi_offset 4, -12
 1045              		.cfi_offset 5, -8
 1046              		.cfi_offset 14, -4
 1047 0002 0546     		mov	r5, r0
 647:Middlewares/Third_Party/FreeRTOS/Source/timers.c **** PRIVILEGED_DATA static TickType_t xLastTime = ( TickType_t ) 0U; /*lint !e956 Variable is only acce
 1048              		.loc 1 647 1 is_stmt 1 view .LVU270
 648:Middlewares/Third_Party/FreeRTOS/Source/timers.c **** 
 1049              		.loc 1 648 17 view .LVU271
 650:Middlewares/Third_Party/FreeRTOS/Source/timers.c **** 
 1050              		.loc 1 650 2 view .LVU272
 650:Middlewares/Third_Party/FreeRTOS/Source/timers.c **** 
 1051              		.loc 1 650 13 is_stmt 0 view .LVU273
 1052 0004 FFF7FEFF 		bl	xTaskGetTickCount
 1053              	.LVL77:
 650:Middlewares/Third_Party/FreeRTOS/Source/timers.c **** 
 1054              		.loc 1 650 13 view .LVU274
 1055 0008 0446     		mov	r4, r0
 1056              	.LVL78:
 652:Middlewares/Third_Party/FreeRTOS/Source/timers.c **** 	{
 1057              		.loc 1 652 2 is_stmt 1 view .LVU275
 652:Middlewares/Third_Party/FreeRTOS/Source/timers.c **** 	{
 1058              		.loc 1 652 15 is_stmt 0 view .LVU276
 1059 000a 074B     		ldr	r3, .L76
 1060 000c 1B68     		ldr	r3, [r3]
 652:Middlewares/Third_Party/FreeRTOS/Source/timers.c **** 	{
 1061              		.loc 1 652 4 view .LVU277
 1062 000e 8342     		cmp	r3, r0
 1063 0010 05D8     		bhi	.L75
 659:Middlewares/Third_Party/FreeRTOS/Source/timers.c **** 	}
 1064              		.loc 1 659 3 is_stmt 1 view .LVU278
 659:Middlewares/Third_Party/FreeRTOS/Source/timers.c **** 	}
 1065              		.loc 1 659 29 is_stmt 0 view .LVU279
 1066 0012 0023     		movs	r3, #0
 1067 0014 2B60     		str	r3, [r5]
 1068              	.LVL79:
 1069              	.L73:
 662:Middlewares/Third_Party/FreeRTOS/Source/timers.c **** 
 1070              		.loc 1 662 2 is_stmt 1 view .LVU280
 662:Middlewares/Third_Party/FreeRTOS/Source/timers.c **** 
 1071              		.loc 1 662 12 is_stmt 0 view .LVU281
 1072 0016 044B     		ldr	r3, .L76
 1073 0018 1C60     		str	r4, [r3]
 664:Middlewares/Third_Party/FreeRTOS/Source/timers.c **** }
 1074              		.loc 1 664 2 is_stmt 1 view .LVU282
 665:Middlewares/Third_Party/FreeRTOS/Source/timers.c **** /*-----------------------------------------------------------*/
ARM GAS  /tmp/ccLaWYPJ.s 			page 44


 1075              		.loc 1 665 1 is_stmt 0 view .LVU283
 1076 001a 2046     		mov	r0, r4
 1077 001c 38BD     		pop	{r3, r4, r5, pc}
 1078              	.LVL80:
 1079              	.L75:
 654:Middlewares/Third_Party/FreeRTOS/Source/timers.c **** 		*pxTimerListsWereSwitched = pdTRUE;
 1080              		.loc 1 654 3 is_stmt 1 view .LVU284
 1081 001e FFF7FEFF 		bl	prvSwitchTimerLists
 1082              	.LVL81:
 655:Middlewares/Third_Party/FreeRTOS/Source/timers.c **** 	}
 1083              		.loc 1 655 3 view .LVU285
 655:Middlewares/Third_Party/FreeRTOS/Source/timers.c **** 	}
 1084              		.loc 1 655 29 is_stmt 0 view .LVU286
 1085 0022 0123     		movs	r3, #1
 1086 0024 2B60     		str	r3, [r5]
 1087 0026 F6E7     		b	.L73
 1088              	.L77:
 1089              		.align	2
 1090              	.L76:
 1091 0028 00000000 		.word	.LANCHOR8
 1092              		.cfi_endproc
 1093              	.LFE18:
 1095              		.section	.text.prvProcessExpiredTimer,"ax",%progbits
 1096              		.align	1
 1097              		.syntax unified
 1098              		.thumb
 1099              		.thumb_func
 1100              		.fpu fpv4-sp-d16
 1102              	prvProcessExpiredTimer:
 1103              	.LVL82:
 1104              	.LFB14:
 483:Middlewares/Third_Party/FreeRTOS/Source/timers.c **** BaseType_t xResult;
 1105              		.loc 1 483 1 is_stmt 1 view -0
 1106              		.cfi_startproc
 1107              		@ args = 0, pretend = 0, frame = 0
 1108              		@ frame_needed = 0, uses_anonymous_args = 0
 483:Middlewares/Third_Party/FreeRTOS/Source/timers.c **** BaseType_t xResult;
 1109              		.loc 1 483 1 is_stmt 0 view .LVU288
 1110 0000 70B5     		push	{r4, r5, r6, lr}
 1111              	.LCFI27:
 1112              		.cfi_def_cfa_offset 16
 1113              		.cfi_offset 4, -16
 1114              		.cfi_offset 5, -12
 1115              		.cfi_offset 6, -8
 1116              		.cfi_offset 14, -4
 1117 0002 82B0     		sub	sp, sp, #8
 1118              	.LCFI28:
 1119              		.cfi_def_cfa_offset 24
 1120 0004 0546     		mov	r5, r0
 1121 0006 0E46     		mov	r6, r1
 484:Middlewares/Third_Party/FreeRTOS/Source/timers.c **** Timer_t * const pxTimer = ( Timer_t * ) listGET_OWNER_OF_HEAD_ENTRY( pxCurrentTimerList ); /*lint !
 1122              		.loc 1 484 1 is_stmt 1 view .LVU289
 485:Middlewares/Third_Party/FreeRTOS/Source/timers.c **** 
 1123              		.loc 1 485 1 view .LVU290
 485:Middlewares/Third_Party/FreeRTOS/Source/timers.c **** 
 1124              		.loc 1 485 41 is_stmt 0 view .LVU291
 1125 0008 174B     		ldr	r3, .L84
ARM GAS  /tmp/ccLaWYPJ.s 			page 45


 1126 000a 1B68     		ldr	r3, [r3]
 1127 000c DB68     		ldr	r3, [r3, #12]
 485:Middlewares/Third_Party/FreeRTOS/Source/timers.c **** 
 1128              		.loc 1 485 17 view .LVU292
 1129 000e DC68     		ldr	r4, [r3, #12]
 1130              	.LVL83:
 489:Middlewares/Third_Party/FreeRTOS/Source/timers.c **** 	traceTIMER_EXPIRED( pxTimer );
 1131              		.loc 1 489 2 is_stmt 1 view .LVU293
 489:Middlewares/Third_Party/FreeRTOS/Source/timers.c **** 	traceTIMER_EXPIRED( pxTimer );
 1132              		.loc 1 489 11 is_stmt 0 view .LVU294
 1133 0010 201D     		adds	r0, r4, #4
 1134              	.LVL84:
 489:Middlewares/Third_Party/FreeRTOS/Source/timers.c **** 	traceTIMER_EXPIRED( pxTimer );
 1135              		.loc 1 489 11 view .LVU295
 1136 0012 FFF7FEFF 		bl	uxListRemove
 1137              	.LVL85:
 490:Middlewares/Third_Party/FreeRTOS/Source/timers.c **** 
 1138              		.loc 1 490 31 is_stmt 1 view .LVU296
 494:Middlewares/Third_Party/FreeRTOS/Source/timers.c **** 	{
 1139              		.loc 1 494 2 view .LVU297
 494:Middlewares/Third_Party/FreeRTOS/Source/timers.c **** 	{
 1140              		.loc 1 494 15 is_stmt 0 view .LVU298
 1141 0016 94F82830 		ldrb	r3, [r4, #40]	@ zero_extendqisi2
 494:Middlewares/Third_Party/FreeRTOS/Source/timers.c **** 	{
 1142              		.loc 1 494 4 view .LVU299
 1143 001a 13F0040F 		tst	r3, #4
 1144 001e 08D1     		bne	.L83
 514:Middlewares/Third_Party/FreeRTOS/Source/timers.c **** 		mtCOVERAGE_TEST_MARKER();
 1145              		.loc 1 514 3 is_stmt 1 view .LVU300
 514:Middlewares/Third_Party/FreeRTOS/Source/timers.c **** 		mtCOVERAGE_TEST_MARKER();
 1146              		.loc 1 514 21 is_stmt 0 view .LVU301
 1147 0020 23F00103 		bic	r3, r3, #1
 1148 0024 84F82830 		strb	r3, [r4, #40]
 1149              	.L80:
 515:Middlewares/Third_Party/FreeRTOS/Source/timers.c **** 	}
 1150              		.loc 1 515 27 is_stmt 1 view .LVU302
 519:Middlewares/Third_Party/FreeRTOS/Source/timers.c **** }
 1151              		.loc 1 519 2 view .LVU303
 519:Middlewares/Third_Party/FreeRTOS/Source/timers.c **** }
 1152              		.loc 1 519 9 is_stmt 0 view .LVU304
 1153 0028 236A     		ldr	r3, [r4, #32]
 519:Middlewares/Third_Party/FreeRTOS/Source/timers.c **** }
 1154              		.loc 1 519 2 view .LVU305
 1155 002a 2046     		mov	r0, r4
 1156 002c 9847     		blx	r3
 1157              	.LVL86:
 520:Middlewares/Third_Party/FreeRTOS/Source/timers.c **** /*-----------------------------------------------------------*/
 1158              		.loc 1 520 1 view .LVU306
 1159 002e 02B0     		add	sp, sp, #8
 1160              	.LCFI29:
 1161              		.cfi_remember_state
 1162              		.cfi_def_cfa_offset 16
 1163              		@ sp needed
 1164 0030 70BD     		pop	{r4, r5, r6, pc}
 1165              	.LVL87:
 1166              	.L83:
 1167              	.LCFI30:
ARM GAS  /tmp/ccLaWYPJ.s 			page 46


 1168              		.cfi_restore_state
 499:Middlewares/Third_Party/FreeRTOS/Source/timers.c **** 		{
 1169              		.loc 1 499 3 is_stmt 1 view .LVU307
 499:Middlewares/Third_Party/FreeRTOS/Source/timers.c **** 		{
 1170              		.loc 1 499 71 is_stmt 0 view .LVU308
 1171 0032 A169     		ldr	r1, [r4, #24]
 499:Middlewares/Third_Party/FreeRTOS/Source/timers.c **** 		{
 1172              		.loc 1 499 7 view .LVU309
 1173 0034 2B46     		mov	r3, r5
 1174 0036 3246     		mov	r2, r6
 1175 0038 2944     		add	r1, r1, r5
 1176 003a 2046     		mov	r0, r4
 1177 003c FFF7FEFF 		bl	prvInsertTimerInActiveList
 1178              	.LVL88:
 499:Middlewares/Third_Party/FreeRTOS/Source/timers.c **** 		{
 1179              		.loc 1 499 5 view .LVU310
 1180 0040 0028     		cmp	r0, #0
 1181 0042 F1D0     		beq	.L80
 503:Middlewares/Third_Party/FreeRTOS/Source/timers.c **** 			configASSERT( xResult );
 1182              		.loc 1 503 4 is_stmt 1 view .LVU311
 503:Middlewares/Third_Party/FreeRTOS/Source/timers.c **** 			configASSERT( xResult );
 1183              		.loc 1 503 14 is_stmt 0 view .LVU312
 1184 0044 0021     		movs	r1, #0
 1185 0046 0091     		str	r1, [sp]
 1186 0048 0B46     		mov	r3, r1
 1187 004a 2A46     		mov	r2, r5
 1188 004c 2046     		mov	r0, r4
 1189 004e FFF7FEFF 		bl	xTimerGenericCommand
 1190              	.LVL89:
 504:Middlewares/Third_Party/FreeRTOS/Source/timers.c **** 			( void ) xResult;
 1191              		.loc 1 504 4 is_stmt 1 view .LVU313
 1192 0052 0028     		cmp	r0, #0
 1193 0054 E8D1     		bne	.L80
 504:Middlewares/Third_Party/FreeRTOS/Source/timers.c **** 			( void ) xResult;
 1194              		.loc 1 504 4 view .LVU314
 1195              	.LBB58:
 1196              	.LBI58:
 191:Middlewares/Third_Party/FreeRTOS/Source/portable/GCC/ARM_CM4F/portmacro.h **** {
 1197              		.loc 2 191 30 view .LVU315
 1198              	.LBB59:
 193:Middlewares/Third_Party/FreeRTOS/Source/portable/GCC/ARM_CM4F/portmacro.h **** 
 1199              		.loc 2 193 1 view .LVU316
 1200              		.loc 2 195 2 view .LVU317
 1201              		.syntax unified
 1202              	@ 195 "Middlewares/Third_Party/FreeRTOS/Source/portable/GCC/ARM_CM4F/portmacro.h" 1
 1203 0056 4FF05003 			mov r3, #80												
 1204 005a 83F31188 		msr basepri, r3											
 1205 005e BFF36F8F 		isb														
 1206 0062 BFF34F8F 		dsb														
 1207              	
 1208              	@ 0 "" 2
 1209              	.LVL90:
 1210              		.thumb
 1211              		.syntax unified
 1212              	.L81:
 1213              		.loc 2 195 2 is_stmt 0 view .LVU318
 1214              	.LBE59:
ARM GAS  /tmp/ccLaWYPJ.s 			page 47


 1215              	.LBE58:
 504:Middlewares/Third_Party/FreeRTOS/Source/timers.c **** 			( void ) xResult;
 1216              		.loc 1 504 4 is_stmt 1 discriminator 1 view .LVU319
 504:Middlewares/Third_Party/FreeRTOS/Source/timers.c **** 			( void ) xResult;
 1217              		.loc 1 504 4 discriminator 1 view .LVU320
 504:Middlewares/Third_Party/FreeRTOS/Source/timers.c **** 			( void ) xResult;
 1218              		.loc 1 504 4 discriminator 1 view .LVU321
 1219 0066 FEE7     		b	.L81
 1220              	.L85:
 1221              		.align	2
 1222              	.L84:
 1223 0068 00000000 		.word	.LANCHOR0
 1224              		.cfi_endproc
 1225              	.LFE14:
 1227              		.section	.text.prvProcessTimerOrBlockTask,"ax",%progbits
 1228              		.align	1
 1229              		.syntax unified
 1230              		.thumb
 1231              		.thumb_func
 1232              		.fpu fpv4-sp-d16
 1234              	prvProcessTimerOrBlockTask:
 1235              	.LVL91:
 1236              	.LFB16:
 560:Middlewares/Third_Party/FreeRTOS/Source/timers.c **** TickType_t xTimeNow;
 1237              		.loc 1 560 1 view -0
 1238              		.cfi_startproc
 1239              		@ args = 0, pretend = 0, frame = 8
 1240              		@ frame_needed = 0, uses_anonymous_args = 0
 560:Middlewares/Third_Party/FreeRTOS/Source/timers.c **** TickType_t xTimeNow;
 1241              		.loc 1 560 1 is_stmt 0 view .LVU323
 1242 0000 70B5     		push	{r4, r5, r6, lr}
 1243              	.LCFI31:
 1244              		.cfi_def_cfa_offset 16
 1245              		.cfi_offset 4, -16
 1246              		.cfi_offset 5, -12
 1247              		.cfi_offset 6, -8
 1248              		.cfi_offset 14, -4
 1249 0002 82B0     		sub	sp, sp, #8
 1250              	.LCFI32:
 1251              		.cfi_def_cfa_offset 24
 1252 0004 0646     		mov	r6, r0
 1253 0006 0C46     		mov	r4, r1
 561:Middlewares/Third_Party/FreeRTOS/Source/timers.c **** BaseType_t xTimerListsWereSwitched;
 1254              		.loc 1 561 1 is_stmt 1 view .LVU324
 562:Middlewares/Third_Party/FreeRTOS/Source/timers.c **** 
 1255              		.loc 1 562 1 view .LVU325
 564:Middlewares/Third_Party/FreeRTOS/Source/timers.c **** 	{
 1256              		.loc 1 564 2 view .LVU326
 1257 0008 FFF7FEFF 		bl	vTaskSuspendAll
 1258              	.LVL92:
 571:Middlewares/Third_Party/FreeRTOS/Source/timers.c **** 		if( xTimerListsWereSwitched == pdFALSE )
 1259              		.loc 1 571 3 view .LVU327
 571:Middlewares/Third_Party/FreeRTOS/Source/timers.c **** 		if( xTimerListsWereSwitched == pdFALSE )
 1260              		.loc 1 571 14 is_stmt 0 view .LVU328
 1261 000c 01A8     		add	r0, sp, #4
 1262 000e FFF7FEFF 		bl	prvSampleTimeNow
 1263              	.LVL93:
ARM GAS  /tmp/ccLaWYPJ.s 			page 48


 572:Middlewares/Third_Party/FreeRTOS/Source/timers.c **** 		{
 1264              		.loc 1 572 3 is_stmt 1 view .LVU329
 572:Middlewares/Third_Party/FreeRTOS/Source/timers.c **** 		{
 1265              		.loc 1 572 31 is_stmt 0 view .LVU330
 1266 0012 019B     		ldr	r3, [sp, #4]
 572:Middlewares/Third_Party/FreeRTOS/Source/timers.c **** 		{
 1267              		.loc 1 572 5 view .LVU331
 1268 0014 23BB     		cbnz	r3, .L87
 1269 0016 0546     		mov	r5, r0
 575:Middlewares/Third_Party/FreeRTOS/Source/timers.c **** 			{
 1270              		.loc 1 575 4 is_stmt 1 view .LVU332
 575:Middlewares/Third_Party/FreeRTOS/Source/timers.c **** 			{
 1271              		.loc 1 575 6 is_stmt 0 view .LVU333
 1272 0018 0CB9     		cbnz	r4, .L88
 575:Middlewares/Third_Party/FreeRTOS/Source/timers.c **** 			{
 1273              		.loc 1 575 37 discriminator 1 view .LVU334
 1274 001a B042     		cmp	r0, r6
 1275 001c 17D2     		bcs	.L93
 1276              	.L88:
 588:Middlewares/Third_Party/FreeRTOS/Source/timers.c **** 				{
 1277              		.loc 1 588 5 is_stmt 1 view .LVU335
 588:Middlewares/Third_Party/FreeRTOS/Source/timers.c **** 				{
 1278              		.loc 1 588 7 is_stmt 0 view .LVU336
 1279 001e 24B1     		cbz	r4, .L90
 592:Middlewares/Third_Party/FreeRTOS/Source/timers.c **** 				}
 1280              		.loc 1 592 6 is_stmt 1 view .LVU337
 592:Middlewares/Third_Party/FreeRTOS/Source/timers.c **** 				}
 1281              		.loc 1 592 22 is_stmt 0 view .LVU338
 1282 0020 114A     		ldr	r2, .L94
 1283 0022 1268     		ldr	r2, [r2]
 1284 0024 1268     		ldr	r2, [r2]
 1285 0026 CAB9     		cbnz	r2, .L91
 1286 0028 0124     		movs	r4, #1
 1287              	.LVL94:
 1288              	.L90:
 595:Middlewares/Third_Party/FreeRTOS/Source/timers.c **** 
 1289              		.loc 1 595 5 is_stmt 1 view .LVU339
 1290 002a 2246     		mov	r2, r4
 1291 002c 711B     		subs	r1, r6, r5
 1292 002e 0F4B     		ldr	r3, .L94+4
 1293 0030 1868     		ldr	r0, [r3]
 1294              	.LVL95:
 595:Middlewares/Third_Party/FreeRTOS/Source/timers.c **** 
 1295              		.loc 1 595 5 is_stmt 0 view .LVU340
 1296 0032 FFF7FEFF 		bl	vQueueWaitForMessageRestricted
 1297              	.LVL96:
 597:Middlewares/Third_Party/FreeRTOS/Source/timers.c **** 				{
 1298              		.loc 1 597 5 is_stmt 1 view .LVU341
 597:Middlewares/Third_Party/FreeRTOS/Source/timers.c **** 				{
 1299              		.loc 1 597 9 is_stmt 0 view .LVU342
 1300 0036 FFF7FEFF 		bl	xTaskResumeAll
 1301              	.LVL97:
 597:Middlewares/Third_Party/FreeRTOS/Source/timers.c **** 				{
 1302              		.loc 1 597 7 view .LVU343
 1303 003a 98B9     		cbnz	r0, .L86
 603:Middlewares/Third_Party/FreeRTOS/Source/timers.c **** 				}
 1304              		.loc 1 603 6 is_stmt 1 view .LVU344
ARM GAS  /tmp/ccLaWYPJ.s 			page 49


 1305 003c 0C4B     		ldr	r3, .L94+8
 1306 003e 4FF08052 		mov	r2, #268435456
 1307 0042 1A60     		str	r2, [r3]
 603:Middlewares/Third_Party/FreeRTOS/Source/timers.c **** 				}
 1308              		.loc 1 603 6 view .LVU345
 1309              		.syntax unified
 1310              	@ 603 "Middlewares/Third_Party/FreeRTOS/Source/timers.c" 1
 1311 0044 BFF34F8F 		dsb
 1312              	@ 0 "" 2
 603:Middlewares/Third_Party/FreeRTOS/Source/timers.c **** 				}
 1313              		.loc 1 603 6 view .LVU346
 1314              	@ 603 "Middlewares/Third_Party/FreeRTOS/Source/timers.c" 1
 1315 0048 BFF36F8F 		isb
 1316              	@ 0 "" 2
 603:Middlewares/Third_Party/FreeRTOS/Source/timers.c **** 				}
 1317              		.loc 1 603 28 view .LVU347
 1318              		.thumb
 1319              		.syntax unified
 1320 004c 0AE0     		b	.L86
 1321              	.LVL98:
 1322              	.L93:
 577:Middlewares/Third_Party/FreeRTOS/Source/timers.c **** 				prvProcessExpiredTimer( xNextExpireTime, xTimeNow );
 1323              		.loc 1 577 5 view .LVU348
 577:Middlewares/Third_Party/FreeRTOS/Source/timers.c **** 				prvProcessExpiredTimer( xNextExpireTime, xTimeNow );
 1324              		.loc 1 577 14 is_stmt 0 view .LVU349
 1325 004e FFF7FEFF 		bl	xTaskResumeAll
 1326              	.LVL99:
 578:Middlewares/Third_Party/FreeRTOS/Source/timers.c **** 			}
 1327              		.loc 1 578 5 is_stmt 1 view .LVU350
 1328 0052 2946     		mov	r1, r5
 1329 0054 3046     		mov	r0, r6
 1330 0056 FFF7FEFF 		bl	prvProcessExpiredTimer
 1331              	.LVL100:
 1332 005a 03E0     		b	.L86
 1333              	.LVL101:
 1334              	.L91:
 592:Middlewares/Third_Party/FreeRTOS/Source/timers.c **** 				}
 1335              		.loc 1 592 22 is_stmt 0 view .LVU351
 1336 005c 1C46     		mov	r4, r3
 1337              	.LVL102:
 592:Middlewares/Third_Party/FreeRTOS/Source/timers.c **** 				}
 1338              		.loc 1 592 22 view .LVU352
 1339 005e E4E7     		b	.L90
 1340              	.LVL103:
 1341              	.L87:
 613:Middlewares/Third_Party/FreeRTOS/Source/timers.c **** 		}
 1342              		.loc 1 613 4 is_stmt 1 view .LVU353
 613:Middlewares/Third_Party/FreeRTOS/Source/timers.c **** 		}
 1343              		.loc 1 613 13 is_stmt 0 view .LVU354
 1344 0060 FFF7FEFF 		bl	xTaskResumeAll
 1345              	.LVL104:
 1346              	.L86:
 616:Middlewares/Third_Party/FreeRTOS/Source/timers.c **** /*-----------------------------------------------------------*/
 1347              		.loc 1 616 1 view .LVU355
 1348 0064 02B0     		add	sp, sp, #8
 1349              	.LCFI33:
 1350              		.cfi_def_cfa_offset 16
ARM GAS  /tmp/ccLaWYPJ.s 			page 50


 1351              		@ sp needed
 1352 0066 70BD     		pop	{r4, r5, r6, pc}
 1353              	.LVL105:
 1354              	.L95:
 616:Middlewares/Third_Party/FreeRTOS/Source/timers.c **** /*-----------------------------------------------------------*/
 1355              		.loc 1 616 1 view .LVU356
 1356              		.align	2
 1357              	.L94:
 1358 0068 00000000 		.word	.LANCHOR1
 1359 006c 00000000 		.word	.LANCHOR2
 1360 0070 04ED00E0 		.word	-536810236
 1361              		.cfi_endproc
 1362              	.LFE16:
 1364              		.section	.text.prvProcessReceivedCommands,"ax",%progbits
 1365              		.align	1
 1366              		.syntax unified
 1367              		.thumb
 1368              		.thumb_func
 1369              		.fpu fpv4-sp-d16
 1371              	prvProcessReceivedCommands:
 1372              	.LFB20:
 710:Middlewares/Third_Party/FreeRTOS/Source/timers.c **** DaemonTaskMessage_t xMessage;
 1373              		.loc 1 710 1 is_stmt 1 view -0
 1374              		.cfi_startproc
 1375              		@ args = 0, pretend = 0, frame = 24
 1376              		@ frame_needed = 0, uses_anonymous_args = 0
 1377 0000 10B5     		push	{r4, lr}
 1378              	.LCFI34:
 1379              		.cfi_def_cfa_offset 8
 1380              		.cfi_offset 4, -8
 1381              		.cfi_offset 14, -4
 1382 0002 88B0     		sub	sp, sp, #32
 1383              	.LCFI35:
 1384              		.cfi_def_cfa_offset 40
 711:Middlewares/Third_Party/FreeRTOS/Source/timers.c **** Timer_t *pxTimer;
 1385              		.loc 1 711 1 view .LVU358
 712:Middlewares/Third_Party/FreeRTOS/Source/timers.c **** BaseType_t xTimerListsWereSwitched, xResult;
 1386              		.loc 1 712 1 view .LVU359
 713:Middlewares/Third_Party/FreeRTOS/Source/timers.c **** TickType_t xTimeNow;
 1387              		.loc 1 713 1 view .LVU360
 714:Middlewares/Third_Party/FreeRTOS/Source/timers.c **** 
 1388              		.loc 1 714 1 view .LVU361
 716:Middlewares/Third_Party/FreeRTOS/Source/timers.c **** 	{
 1389              		.loc 1 716 2 view .LVU362
 716:Middlewares/Third_Party/FreeRTOS/Source/timers.c **** 	{
 1390              		.loc 1 716 7 is_stmt 0 view .LVU363
 1391 0004 06E0     		b	.L99
 1392              	.L116:
 1393              	.LBB60:
 724:Middlewares/Third_Party/FreeRTOS/Source/timers.c **** 
 1394              		.loc 1 724 5 is_stmt 1 discriminator 2 view .LVU364
 1395              	.LVL106:
 728:Middlewares/Third_Party/FreeRTOS/Source/timers.c **** 
 1396              		.loc 1 728 5 discriminator 2 view .LVU365
 728:Middlewares/Third_Party/FreeRTOS/Source/timers.c **** 
 1397              		.loc 1 728 31 discriminator 2 view .LVU366
 731:Middlewares/Third_Party/FreeRTOS/Source/timers.c **** 			}
ARM GAS  /tmp/ccLaWYPJ.s 			page 51


 1398              		.loc 1 731 5 discriminator 2 view .LVU367
 1399 0006 0799     		ldr	r1, [sp, #28]
 1400 0008 0698     		ldr	r0, [sp, #24]
 1401 000a 059B     		ldr	r3, [sp, #20]
 1402 000c 9847     		blx	r3
 1403              	.LVL107:
 1404              	.L98:
 731:Middlewares/Third_Party/FreeRTOS/Source/timers.c **** 			}
 1405              		.loc 1 731 5 is_stmt 0 discriminator 2 view .LVU368
 1406              	.LBE60:
 735:Middlewares/Third_Party/FreeRTOS/Source/timers.c **** 			}
 1407              		.loc 1 735 29 is_stmt 1 view .LVU369
 742:Middlewares/Third_Party/FreeRTOS/Source/timers.c **** 		{
 1408              		.loc 1 742 3 view .LVU370
 742:Middlewares/Third_Party/FreeRTOS/Source/timers.c **** 		{
 1409              		.loc 1 742 15 is_stmt 0 view .LVU371
 1410 000e 049B     		ldr	r3, [sp, #16]
 742:Middlewares/Third_Party/FreeRTOS/Source/timers.c **** 		{
 1411              		.loc 1 742 5 view .LVU372
 1412 0010 002B     		cmp	r3, #0
 1413 0012 0BDA     		bge	.L114
 1414              	.L99:
 716:Middlewares/Third_Party/FreeRTOS/Source/timers.c **** 	{
 1415              		.loc 1 716 7 is_stmt 1 view .LVU373
 716:Middlewares/Third_Party/FreeRTOS/Source/timers.c **** 	{
 1416              		.loc 1 716 9 is_stmt 0 view .LVU374
 1417 0014 0022     		movs	r2, #0
 1418 0016 04A9     		add	r1, sp, #16
 1419 0018 3B4B     		ldr	r3, .L119
 1420 001a 1868     		ldr	r0, [r3]
 1421 001c FFF7FEFF 		bl	xQueueReceive
 1422              	.LVL108:
 716:Middlewares/Third_Party/FreeRTOS/Source/timers.c **** 	{
 1423              		.loc 1 716 7 view .LVU375
 1424 0020 0028     		cmp	r0, #0
 1425 0022 6FD0     		beq	.L115
 722:Middlewares/Third_Party/FreeRTOS/Source/timers.c **** 			{
 1426              		.loc 1 722 4 is_stmt 1 view .LVU376
 722:Middlewares/Third_Party/FreeRTOS/Source/timers.c **** 			{
 1427              		.loc 1 722 16 is_stmt 0 view .LVU377
 1428 0024 049B     		ldr	r3, [sp, #16]
 722:Middlewares/Third_Party/FreeRTOS/Source/timers.c **** 			{
 1429              		.loc 1 722 6 view .LVU378
 1430 0026 002B     		cmp	r3, #0
 1431 0028 F1DA     		bge	.L98
 1432 002a ECE7     		b	.L116
 1433              	.L114:
 746:Middlewares/Third_Party/FreeRTOS/Source/timers.c **** 
 1434              		.loc 1 746 4 is_stmt 1 view .LVU379
 746:Middlewares/Third_Party/FreeRTOS/Source/timers.c **** 
 1435              		.loc 1 746 12 is_stmt 0 view .LVU380
 1436 002c 069C     		ldr	r4, [sp, #24]
 1437              	.LVL109:
 748:Middlewares/Third_Party/FreeRTOS/Source/timers.c **** 			{
 1438              		.loc 1 748 4 is_stmt 1 view .LVU381
 748:Middlewares/Third_Party/FreeRTOS/Source/timers.c **** 			{
 1439              		.loc 1 748 8 is_stmt 0 view .LVU382
ARM GAS  /tmp/ccLaWYPJ.s 			page 52


 1440 002e 6369     		ldr	r3, [r4, #20]
 748:Middlewares/Third_Party/FreeRTOS/Source/timers.c **** 			{
 1441              		.loc 1 748 6 view .LVU383
 1442 0030 13B1     		cbz	r3, .L100
 751:Middlewares/Third_Party/FreeRTOS/Source/timers.c **** 			}
 1443              		.loc 1 751 5 is_stmt 1 view .LVU384
 751:Middlewares/Third_Party/FreeRTOS/Source/timers.c **** 			}
 1444              		.loc 1 751 14 is_stmt 0 view .LVU385
 1445 0032 201D     		adds	r0, r4, #4
 1446 0034 FFF7FEFF 		bl	uxListRemove
 1447              	.LVL110:
 1448              	.L100:
 755:Middlewares/Third_Party/FreeRTOS/Source/timers.c **** 			}
 1449              		.loc 1 755 29 is_stmt 1 view .LVU386
 758:Middlewares/Third_Party/FreeRTOS/Source/timers.c **** 
 1450              		.loc 1 758 106 view .LVU387
 766:Middlewares/Third_Party/FreeRTOS/Source/timers.c **** 
 1451              		.loc 1 766 4 view .LVU388
 766:Middlewares/Third_Party/FreeRTOS/Source/timers.c **** 
 1452              		.loc 1 766 15 is_stmt 0 view .LVU389
 1453 0038 03A8     		add	r0, sp, #12
 1454 003a FFF7FEFF 		bl	prvSampleTimeNow
 1455              	.LVL111:
 768:Middlewares/Third_Party/FreeRTOS/Source/timers.c **** 			{
 1456              		.loc 1 768 4 is_stmt 1 view .LVU390
 768:Middlewares/Third_Party/FreeRTOS/Source/timers.c **** 			{
 1457              		.loc 1 768 20 is_stmt 0 view .LVU391
 1458 003e 049B     		ldr	r3, [sp, #16]
 1459 0040 092B     		cmp	r3, #9
 1460 0042 E7D8     		bhi	.L99
 1461 0044 DFE803F0 		tbb	[pc, r3]
 1462              	.L103:
 1463 0048 05       		.byte	(.L105-.L103)/2
 1464 0049 05       		.byte	(.L105-.L103)/2
 1465 004a 05       		.byte	(.L105-.L103)/2
 1466 004b 30       		.byte	(.L104-.L103)/2
 1467 004c 37       		.byte	(.L102-.L103)/2
 1468 004d 50       		.byte	(.L106-.L103)/2
 1469 004e 05       		.byte	(.L105-.L103)/2
 1470 004f 05       		.byte	(.L105-.L103)/2
 1471 0050 30       		.byte	(.L104-.L103)/2
 1472 0051 37       		.byte	(.L102-.L103)/2
 1473              		.p2align 1
 1474              	.L105:
 776:Middlewares/Third_Party/FreeRTOS/Source/timers.c **** 					if( prvInsertTimerInActiveList( pxTimer,  xMessage.u.xTimerParameters.xMessageValue + pxTimer-
 1475              		.loc 1 776 6 is_stmt 1 view .LVU392
 776:Middlewares/Third_Party/FreeRTOS/Source/timers.c **** 					if( prvInsertTimerInActiveList( pxTimer,  xMessage.u.xTimerParameters.xMessageValue + pxTimer-
 1476              		.loc 1 776 24 is_stmt 0 view .LVU393
 1477 0052 94F82830 		ldrb	r3, [r4, #40]	@ zero_extendqisi2
 1478 0056 43F00103 		orr	r3, r3, #1
 1479 005a 84F82830 		strb	r3, [r4, #40]
 777:Middlewares/Third_Party/FreeRTOS/Source/timers.c **** 					{
 1480              		.loc 1 777 6 is_stmt 1 view .LVU394
 777:Middlewares/Third_Party/FreeRTOS/Source/timers.c **** 					{
 1481              		.loc 1 777 75 is_stmt 0 view .LVU395
 1482 005e 059B     		ldr	r3, [sp, #20]
 777:Middlewares/Third_Party/FreeRTOS/Source/timers.c **** 					{
ARM GAS  /tmp/ccLaWYPJ.s 			page 53


 1483              		.loc 1 777 99 view .LVU396
 1484 0060 A169     		ldr	r1, [r4, #24]
 777:Middlewares/Third_Party/FreeRTOS/Source/timers.c **** 					{
 1485              		.loc 1 777 10 view .LVU397
 1486 0062 0246     		mov	r2, r0
 1487 0064 1944     		add	r1, r1, r3
 1488 0066 2046     		mov	r0, r4
 1489              	.LVL112:
 777:Middlewares/Third_Party/FreeRTOS/Source/timers.c **** 					{
 1490              		.loc 1 777 10 view .LVU398
 1491 0068 FFF7FEFF 		bl	prvInsertTimerInActiveList
 1492              	.LVL113:
 777:Middlewares/Third_Party/FreeRTOS/Source/timers.c **** 					{
 1493              		.loc 1 777 8 view .LVU399
 1494 006c 0028     		cmp	r0, #0
 1495 006e D1D0     		beq	.L99
 781:Middlewares/Third_Party/FreeRTOS/Source/timers.c **** 						traceTIMER_EXPIRED( pxTimer );
 1496              		.loc 1 781 7 is_stmt 1 view .LVU400
 781:Middlewares/Third_Party/FreeRTOS/Source/timers.c **** 						traceTIMER_EXPIRED( pxTimer );
 1497              		.loc 1 781 14 is_stmt 0 view .LVU401
 1498 0070 236A     		ldr	r3, [r4, #32]
 781:Middlewares/Third_Party/FreeRTOS/Source/timers.c **** 						traceTIMER_EXPIRED( pxTimer );
 1499              		.loc 1 781 7 view .LVU402
 1500 0072 2046     		mov	r0, r4
 1501 0074 9847     		blx	r3
 1502              	.LVL114:
 782:Middlewares/Third_Party/FreeRTOS/Source/timers.c **** 
 1503              		.loc 1 782 36 is_stmt 1 view .LVU403
 784:Middlewares/Third_Party/FreeRTOS/Source/timers.c **** 						{
 1504              		.loc 1 784 7 view .LVU404
 784:Middlewares/Third_Party/FreeRTOS/Source/timers.c **** 						{
 1505              		.loc 1 784 20 is_stmt 0 view .LVU405
 1506 0076 94F82830 		ldrb	r3, [r4, #40]	@ zero_extendqisi2
 784:Middlewares/Third_Party/FreeRTOS/Source/timers.c **** 						{
 1507              		.loc 1 784 9 view .LVU406
 1508 007a 13F0040F 		tst	r3, #4
 1509 007e C9D0     		beq	.L99
 786:Middlewares/Third_Party/FreeRTOS/Source/timers.c **** 							configASSERT( xResult );
 1510              		.loc 1 786 8 is_stmt 1 view .LVU407
 786:Middlewares/Third_Party/FreeRTOS/Source/timers.c **** 							configASSERT( xResult );
 1511              		.loc 1 786 129 is_stmt 0 view .LVU408
 1512 0080 A269     		ldr	r2, [r4, #24]
 786:Middlewares/Third_Party/FreeRTOS/Source/timers.c **** 							configASSERT( xResult );
 1513              		.loc 1 786 18 view .LVU409
 1514 0082 0021     		movs	r1, #0
 1515 0084 0091     		str	r1, [sp]
 1516 0086 0B46     		mov	r3, r1
 1517 0088 0598     		ldr	r0, [sp, #20]
 1518 008a 0244     		add	r2, r2, r0
 1519 008c 2046     		mov	r0, r4
 1520 008e FFF7FEFF 		bl	xTimerGenericCommand
 1521              	.LVL115:
 787:Middlewares/Third_Party/FreeRTOS/Source/timers.c **** 							( void ) xResult;
 1522              		.loc 1 787 8 is_stmt 1 view .LVU410
 1523 0092 0028     		cmp	r0, #0
 1524 0094 BED1     		bne	.L99
 787:Middlewares/Third_Party/FreeRTOS/Source/timers.c **** 							( void ) xResult;
ARM GAS  /tmp/ccLaWYPJ.s 			page 54


 1525              		.loc 1 787 8 view .LVU411
 1526              	.LBB61:
 1527              	.LBI61:
 191:Middlewares/Third_Party/FreeRTOS/Source/portable/GCC/ARM_CM4F/portmacro.h **** {
 1528              		.loc 2 191 30 view .LVU412
 1529              	.LBB62:
 193:Middlewares/Third_Party/FreeRTOS/Source/portable/GCC/ARM_CM4F/portmacro.h **** 
 1530              		.loc 2 193 1 view .LVU413
 1531              		.loc 2 195 2 view .LVU414
 1532              		.syntax unified
 1533              	@ 195 "Middlewares/Third_Party/FreeRTOS/Source/portable/GCC/ARM_CM4F/portmacro.h" 1
 1534 0096 4FF05003 			mov r3, #80												
 1535 009a 83F31188 		msr basepri, r3											
 1536 009e BFF36F8F 		isb														
 1537 00a2 BFF34F8F 		dsb														
 1538              	
 1539              	@ 0 "" 2
 1540              	.LVL116:
 1541              		.thumb
 1542              		.syntax unified
 1543              	.L108:
 1544              		.loc 2 195 2 is_stmt 0 view .LVU415
 1545              	.LBE62:
 1546              	.LBE61:
 787:Middlewares/Third_Party/FreeRTOS/Source/timers.c **** 							( void ) xResult;
 1547              		.loc 1 787 8 is_stmt 1 discriminator 2 view .LVU416
 787:Middlewares/Third_Party/FreeRTOS/Source/timers.c **** 							( void ) xResult;
 1548              		.loc 1 787 8 discriminator 2 view .LVU417
 787:Middlewares/Third_Party/FreeRTOS/Source/timers.c **** 							( void ) xResult;
 1549              		.loc 1 787 8 discriminator 2 view .LVU418
 1550 00a6 FEE7     		b	.L108
 1551              	.LVL117:
 1552              	.L104:
 804:Middlewares/Third_Party/FreeRTOS/Source/timers.c **** 					break;
 1553              		.loc 1 804 6 view .LVU419
 804:Middlewares/Third_Party/FreeRTOS/Source/timers.c **** 					break;
 1554              		.loc 1 804 24 is_stmt 0 view .LVU420
 1555 00a8 94F82830 		ldrb	r3, [r4, #40]	@ zero_extendqisi2
 1556 00ac 23F00103 		bic	r3, r3, #1
 1557 00b0 84F82830 		strb	r3, [r4, #40]
 805:Middlewares/Third_Party/FreeRTOS/Source/timers.c **** 
 1558              		.loc 1 805 6 is_stmt 1 view .LVU421
 1559 00b4 AEE7     		b	.L99
 1560              	.L102:
 809:Middlewares/Third_Party/FreeRTOS/Source/timers.c **** 					pxTimer->xTimerPeriodInTicks = xMessage.u.xTimerParameters.xMessageValue;
 1561              		.loc 1 809 6 view .LVU422
 809:Middlewares/Third_Party/FreeRTOS/Source/timers.c **** 					pxTimer->xTimerPeriodInTicks = xMessage.u.xTimerParameters.xMessageValue;
 1562              		.loc 1 809 24 is_stmt 0 view .LVU423
 1563 00b6 94F82830 		ldrb	r3, [r4, #40]	@ zero_extendqisi2
 1564 00ba 43F00103 		orr	r3, r3, #1
 1565 00be 84F82830 		strb	r3, [r4, #40]
 810:Middlewares/Third_Party/FreeRTOS/Source/timers.c **** 					configASSERT( ( pxTimer->xTimerPeriodInTicks > 0 ) );
 1566              		.loc 1 810 6 is_stmt 1 view .LVU424
 810:Middlewares/Third_Party/FreeRTOS/Source/timers.c **** 					configASSERT( ( pxTimer->xTimerPeriodInTicks > 0 ) );
 1567              		.loc 1 810 64 is_stmt 0 view .LVU425
 1568 00c2 0599     		ldr	r1, [sp, #20]
 810:Middlewares/Third_Party/FreeRTOS/Source/timers.c **** 					configASSERT( ( pxTimer->xTimerPeriodInTicks > 0 ) );
ARM GAS  /tmp/ccLaWYPJ.s 			page 55


 1569              		.loc 1 810 35 view .LVU426
 1570 00c4 A161     		str	r1, [r4, #24]
 811:Middlewares/Third_Party/FreeRTOS/Source/timers.c **** 
 1571              		.loc 1 811 6 is_stmt 1 view .LVU427
 1572 00c6 31B1     		cbz	r1, .L117
 811:Middlewares/Third_Party/FreeRTOS/Source/timers.c **** 
 1573              		.loc 1 811 58 discriminator 2 view .LVU428
 819:Middlewares/Third_Party/FreeRTOS/Source/timers.c **** 					break;
 1574              		.loc 1 819 6 discriminator 2 view .LVU429
 819:Middlewares/Third_Party/FreeRTOS/Source/timers.c **** 					break;
 1575              		.loc 1 819 15 is_stmt 0 discriminator 2 view .LVU430
 1576 00c8 0346     		mov	r3, r0
 1577 00ca 0246     		mov	r2, r0
 1578 00cc 0144     		add	r1, r1, r0
 1579 00ce 2046     		mov	r0, r4
 1580              	.LVL118:
 819:Middlewares/Third_Party/FreeRTOS/Source/timers.c **** 					break;
 1581              		.loc 1 819 15 discriminator 2 view .LVU431
 1582 00d0 FFF7FEFF 		bl	prvInsertTimerInActiveList
 1583              	.LVL119:
 820:Middlewares/Third_Party/FreeRTOS/Source/timers.c **** 
 1584              		.loc 1 820 6 is_stmt 1 discriminator 2 view .LVU432
 1585 00d4 9EE7     		b	.L99
 1586              	.LVL120:
 1587              	.L117:
 811:Middlewares/Third_Party/FreeRTOS/Source/timers.c **** 
 1588              		.loc 1 811 6 view .LVU433
 1589              	.LBB63:
 1590              	.LBI63:
 191:Middlewares/Third_Party/FreeRTOS/Source/portable/GCC/ARM_CM4F/portmacro.h **** {
 1591              		.loc 2 191 30 view .LVU434
 1592              	.LBB64:
 193:Middlewares/Third_Party/FreeRTOS/Source/portable/GCC/ARM_CM4F/portmacro.h **** 
 1593              		.loc 2 193 1 view .LVU435
 1594              		.loc 2 195 2 view .LVU436
 1595              		.syntax unified
 1596              	@ 195 "Middlewares/Third_Party/FreeRTOS/Source/portable/GCC/ARM_CM4F/portmacro.h" 1
 1597 00d6 4FF05003 			mov r3, #80												
 1598 00da 83F31188 		msr basepri, r3											
 1599 00de BFF36F8F 		isb														
 1600 00e2 BFF34F8F 		dsb														
 1601              	
 1602              	@ 0 "" 2
 1603              	.LVL121:
 1604              		.thumb
 1605              		.syntax unified
 1606              	.L110:
 1607              		.loc 2 195 2 is_stmt 0 view .LVU437
 1608              	.LBE64:
 1609              	.LBE63:
 811:Middlewares/Third_Party/FreeRTOS/Source/timers.c **** 
 1610              		.loc 1 811 6 is_stmt 1 discriminator 5 view .LVU438
 811:Middlewares/Third_Party/FreeRTOS/Source/timers.c **** 
 1611              		.loc 1 811 6 discriminator 5 view .LVU439
 811:Middlewares/Third_Party/FreeRTOS/Source/timers.c **** 
 1612              		.loc 1 811 6 discriminator 5 view .LVU440
 1613 00e6 FEE7     		b	.L110
ARM GAS  /tmp/ccLaWYPJ.s 			page 56


 1614              	.L106:
 828:Middlewares/Third_Party/FreeRTOS/Source/timers.c **** 						{
 1615              		.loc 1 828 7 view .LVU441
 828:Middlewares/Third_Party/FreeRTOS/Source/timers.c **** 						{
 1616              		.loc 1 828 20 is_stmt 0 view .LVU442
 1617 00e8 94F82830 		ldrb	r3, [r4, #40]	@ zero_extendqisi2
 828:Middlewares/Third_Party/FreeRTOS/Source/timers.c **** 						{
 1618              		.loc 1 828 9 view .LVU443
 1619 00ec 13F0020F 		tst	r3, #2
 1620 00f0 04D0     		beq	.L118
 834:Middlewares/Third_Party/FreeRTOS/Source/timers.c **** 						}
 1621              		.loc 1 834 8 is_stmt 1 view .LVU444
 834:Middlewares/Third_Party/FreeRTOS/Source/timers.c **** 						}
 1622              		.loc 1 834 26 is_stmt 0 view .LVU445
 1623 00f2 23F00103 		bic	r3, r3, #1
 1624 00f6 84F82830 		strb	r3, [r4, #40]
 1625 00fa 8BE7     		b	.L99
 1626              	.L118:
 830:Middlewares/Third_Party/FreeRTOS/Source/timers.c **** 						}
 1627              		.loc 1 830 8 is_stmt 1 view .LVU446
 1628 00fc 2046     		mov	r0, r4
 1629              	.LVL122:
 830:Middlewares/Third_Party/FreeRTOS/Source/timers.c **** 						}
 1630              		.loc 1 830 8 is_stmt 0 view .LVU447
 1631 00fe FFF7FEFF 		bl	vPortFree
 1632              	.LVL123:
 1633 0102 87E7     		b	.L99
 1634              	.LVL124:
 1635              	.L115:
 854:Middlewares/Third_Party/FreeRTOS/Source/timers.c **** /*-----------------------------------------------------------*/
 1636              		.loc 1 854 1 view .LVU448
 1637 0104 08B0     		add	sp, sp, #32
 1638              	.LCFI36:
 1639              		.cfi_def_cfa_offset 8
 1640              		@ sp needed
 1641 0106 10BD     		pop	{r4, pc}
 1642              	.L120:
 1643              		.align	2
 1644              	.L119:
 1645 0108 00000000 		.word	.LANCHOR2
 1646              		.cfi_endproc
 1647              	.LFE20:
 1649              		.section	.text.prvTimerTask,"ax",%progbits
 1650              		.align	1
 1651              		.syntax unified
 1652              		.thumb
 1653              		.thumb_func
 1654              		.fpu fpv4-sp-d16
 1656              	prvTimerTask:
 1657              	.LFB15:
 524:Middlewares/Third_Party/FreeRTOS/Source/timers.c **** TickType_t xNextExpireTime;
 1658              		.loc 1 524 1 is_stmt 1 view -0
 1659              		.cfi_startproc
 1660              		@ args = 0, pretend = 0, frame = 8
 1661              		@ frame_needed = 0, uses_anonymous_args = 0
 1662              	.LVL125:
 524:Middlewares/Third_Party/FreeRTOS/Source/timers.c **** TickType_t xNextExpireTime;
ARM GAS  /tmp/ccLaWYPJ.s 			page 57


 1663              		.loc 1 524 1 is_stmt 0 view .LVU450
 1664 0000 00B5     		push	{lr}
 1665              	.LCFI37:
 1666              		.cfi_def_cfa_offset 4
 1667              		.cfi_offset 14, -4
 1668 0002 83B0     		sub	sp, sp, #12
 1669              	.LCFI38:
 1670              		.cfi_def_cfa_offset 16
 1671              	.LVL126:
 1672              	.L122:
 525:Middlewares/Third_Party/FreeRTOS/Source/timers.c **** BaseType_t xListWasEmpty;
 1673              		.loc 1 525 1 is_stmt 1 discriminator 1 view .LVU451
 526:Middlewares/Third_Party/FreeRTOS/Source/timers.c **** 
 1674              		.loc 1 526 1 discriminator 1 view .LVU452
 529:Middlewares/Third_Party/FreeRTOS/Source/timers.c **** 
 1675              		.loc 1 529 2 discriminator 1 view .LVU453
 543:Middlewares/Third_Party/FreeRTOS/Source/timers.c **** 	{
 1676              		.loc 1 543 2 discriminator 1 view .LVU454
 547:Middlewares/Third_Party/FreeRTOS/Source/timers.c **** 
 1677              		.loc 1 547 3 discriminator 1 view .LVU455
 547:Middlewares/Third_Party/FreeRTOS/Source/timers.c **** 
 1678              		.loc 1 547 21 is_stmt 0 discriminator 1 view .LVU456
 1679 0004 01A8     		add	r0, sp, #4
 1680 0006 FFF7FEFF 		bl	prvGetNextExpireTime
 1681              	.LVL127:
 551:Middlewares/Third_Party/FreeRTOS/Source/timers.c **** 
 1682              		.loc 1 551 3 is_stmt 1 discriminator 1 view .LVU457
 1683 000a 0199     		ldr	r1, [sp, #4]
 1684 000c FFF7FEFF 		bl	prvProcessTimerOrBlockTask
 1685              	.LVL128:
 554:Middlewares/Third_Party/FreeRTOS/Source/timers.c **** 	}
 1686              		.loc 1 554 3 discriminator 1 view .LVU458
 1687 0010 FFF7FEFF 		bl	prvProcessReceivedCommands
 1688              	.LVL129:
 543:Middlewares/Third_Party/FreeRTOS/Source/timers.c **** 	{
 1689              		.loc 1 543 8 discriminator 1 view .LVU459
 1690 0014 F6E7     		b	.L122
 1691              		.cfi_endproc
 1692              	.LFE15:
 1694              		.section	.text.xTimerGetTimerDaemonTaskHandle,"ax",%progbits
 1695              		.align	1
 1696              		.global	xTimerGetTimerDaemonTaskHandle
 1697              		.syntax unified
 1698              		.thumb
 1699              		.thumb_func
 1700              		.fpu fpv4-sp-d16
 1702              	xTimerGetTimerDaemonTaskHandle:
 1703              	.LFB9:
 425:Middlewares/Third_Party/FreeRTOS/Source/timers.c **** 	/* If xTimerGetTimerDaemonTaskHandle() is called before the scheduler has been
 1704              		.loc 1 425 1 view -0
 1705              		.cfi_startproc
 1706              		@ args = 0, pretend = 0, frame = 0
 1707              		@ frame_needed = 0, uses_anonymous_args = 0
 1708              		@ link register save eliminated.
 428:Middlewares/Third_Party/FreeRTOS/Source/timers.c **** 	return xTimerTaskHandle;
 1709              		.loc 1 428 2 view .LVU461
 1710 0000 064B     		ldr	r3, .L128
ARM GAS  /tmp/ccLaWYPJ.s 			page 58


 1711 0002 1868     		ldr	r0, [r3]
 1712 0004 00B1     		cbz	r0, .L127
 430:Middlewares/Third_Party/FreeRTOS/Source/timers.c **** /*-----------------------------------------------------------*/
 1713              		.loc 1 430 1 is_stmt 0 view .LVU462
 1714 0006 7047     		bx	lr
 1715              	.L127:
 428:Middlewares/Third_Party/FreeRTOS/Source/timers.c **** 	return xTimerTaskHandle;
 1716              		.loc 1 428 2 is_stmt 1 view .LVU463
 1717              	.LBB65:
 1718              	.LBI65:
 191:Middlewares/Third_Party/FreeRTOS/Source/portable/GCC/ARM_CM4F/portmacro.h **** {
 1719              		.loc 2 191 30 view .LVU464
 1720              	.LBB66:
 193:Middlewares/Third_Party/FreeRTOS/Source/portable/GCC/ARM_CM4F/portmacro.h **** 
 1721              		.loc 2 193 1 view .LVU465
 1722              		.loc 2 195 2 view .LVU466
 1723              		.syntax unified
 1724              	@ 195 "Middlewares/Third_Party/FreeRTOS/Source/portable/GCC/ARM_CM4F/portmacro.h" 1
 1725 0008 4FF05003 			mov r3, #80												
 1726 000c 83F31188 		msr basepri, r3											
 1727 0010 BFF36F8F 		isb														
 1728 0014 BFF34F8F 		dsb														
 1729              	
 1730              	@ 0 "" 2
 1731              	.LVL130:
 1732              		.thumb
 1733              		.syntax unified
 1734              	.L126:
 1735              		.loc 2 195 2 is_stmt 0 view .LVU467
 1736              	.LBE66:
 1737              	.LBE65:
 428:Middlewares/Third_Party/FreeRTOS/Source/timers.c **** 	return xTimerTaskHandle;
 1738              		.loc 1 428 2 is_stmt 1 discriminator 1 view .LVU468
 428:Middlewares/Third_Party/FreeRTOS/Source/timers.c **** 	return xTimerTaskHandle;
 1739              		.loc 1 428 2 discriminator 1 view .LVU469
 428:Middlewares/Third_Party/FreeRTOS/Source/timers.c **** 	return xTimerTaskHandle;
 1740              		.loc 1 428 2 discriminator 1 view .LVU470
 1741 0018 FEE7     		b	.L126
 1742              	.L129:
 1743 001a 00BF     		.align	2
 1744              	.L128:
 1745 001c 00000000 		.word	.LANCHOR7
 1746              		.cfi_endproc
 1747              	.LFE9:
 1749              		.section	.text.xTimerGetPeriod,"ax",%progbits
 1750              		.align	1
 1751              		.global	xTimerGetPeriod
 1752              		.syntax unified
 1753              		.thumb
 1754              		.thumb_func
 1755              		.fpu fpv4-sp-d16
 1757              	xTimerGetPeriod:
 1758              	.LVL131:
 1759              	.LFB10:
 434:Middlewares/Third_Party/FreeRTOS/Source/timers.c **** Timer_t *pxTimer = xTimer;
 1760              		.loc 1 434 1 view -0
 1761              		.cfi_startproc
ARM GAS  /tmp/ccLaWYPJ.s 			page 59


 1762              		@ args = 0, pretend = 0, frame = 0
 1763              		@ frame_needed = 0, uses_anonymous_args = 0
 1764              		@ link register save eliminated.
 435:Middlewares/Third_Party/FreeRTOS/Source/timers.c **** 
 1765              		.loc 1 435 1 view .LVU472
 437:Middlewares/Third_Party/FreeRTOS/Source/timers.c **** 	return pxTimer->xTimerPeriodInTicks;
 1766              		.loc 1 437 2 view .LVU473
 1767 0000 08B1     		cbz	r0, .L133
 437:Middlewares/Third_Party/FreeRTOS/Source/timers.c **** 	return pxTimer->xTimerPeriodInTicks;
 1768              		.loc 1 437 24 discriminator 2 view .LVU474
 438:Middlewares/Third_Party/FreeRTOS/Source/timers.c **** }
 1769              		.loc 1 438 2 discriminator 2 view .LVU475
 439:Middlewares/Third_Party/FreeRTOS/Source/timers.c **** /*-----------------------------------------------------------*/
 1770              		.loc 1 439 1 is_stmt 0 discriminator 2 view .LVU476
 1771 0002 8069     		ldr	r0, [r0, #24]
 1772              	.LVL132:
 439:Middlewares/Third_Party/FreeRTOS/Source/timers.c **** /*-----------------------------------------------------------*/
 1773              		.loc 1 439 1 discriminator 2 view .LVU477
 1774 0004 7047     		bx	lr
 1775              	.LVL133:
 1776              	.L133:
 437:Middlewares/Third_Party/FreeRTOS/Source/timers.c **** 	return pxTimer->xTimerPeriodInTicks;
 1777              		.loc 1 437 2 is_stmt 1 view .LVU478
 1778              	.LBB67:
 1779              	.LBI67:
 191:Middlewares/Third_Party/FreeRTOS/Source/portable/GCC/ARM_CM4F/portmacro.h **** {
 1780              		.loc 2 191 30 view .LVU479
 1781              	.LBB68:
 193:Middlewares/Third_Party/FreeRTOS/Source/portable/GCC/ARM_CM4F/portmacro.h **** 
 1782              		.loc 2 193 1 view .LVU480
 1783              		.loc 2 195 2 view .LVU481
 1784              		.syntax unified
 1785              	@ 195 "Middlewares/Third_Party/FreeRTOS/Source/portable/GCC/ARM_CM4F/portmacro.h" 1
 1786 0006 4FF05003 			mov r3, #80												
 1787 000a 83F31188 		msr basepri, r3											
 1788 000e BFF36F8F 		isb														
 1789 0012 BFF34F8F 		dsb														
 1790              	
 1791              	@ 0 "" 2
 1792              	.LVL134:
 1793              		.thumb
 1794              		.syntax unified
 1795              	.L132:
 1796              		.loc 2 195 2 is_stmt 0 view .LVU482
 1797              	.LBE68:
 1798              	.LBE67:
 437:Middlewares/Third_Party/FreeRTOS/Source/timers.c **** 	return pxTimer->xTimerPeriodInTicks;
 1799              		.loc 1 437 2 is_stmt 1 discriminator 1 view .LVU483
 437:Middlewares/Third_Party/FreeRTOS/Source/timers.c **** 	return pxTimer->xTimerPeriodInTicks;
 1800              		.loc 1 437 2 discriminator 1 view .LVU484
 437:Middlewares/Third_Party/FreeRTOS/Source/timers.c **** 	return pxTimer->xTimerPeriodInTicks;
 1801              		.loc 1 437 2 discriminator 1 view .LVU485
 1802 0016 FEE7     		b	.L132
 1803              		.cfi_endproc
 1804              	.LFE10:
 1806              		.section	.text.vTimerSetReloadMode,"ax",%progbits
 1807              		.align	1
ARM GAS  /tmp/ccLaWYPJ.s 			page 60


 1808              		.global	vTimerSetReloadMode
 1809              		.syntax unified
 1810              		.thumb
 1811              		.thumb_func
 1812              		.fpu fpv4-sp-d16
 1814              	vTimerSetReloadMode:
 1815              	.LVL135:
 1816              	.LFB11:
 443:Middlewares/Third_Party/FreeRTOS/Source/timers.c **** Timer_t * pxTimer =  xTimer;
 1817              		.loc 1 443 1 view -0
 1818              		.cfi_startproc
 1819              		@ args = 0, pretend = 0, frame = 0
 1820              		@ frame_needed = 0, uses_anonymous_args = 0
 443:Middlewares/Third_Party/FreeRTOS/Source/timers.c **** Timer_t * pxTimer =  xTimer;
 1821              		.loc 1 443 1 is_stmt 0 view .LVU487
 1822 0000 38B5     		push	{r3, r4, r5, lr}
 1823              	.LCFI39:
 1824              		.cfi_def_cfa_offset 16
 1825              		.cfi_offset 3, -16
 1826              		.cfi_offset 4, -12
 1827              		.cfi_offset 5, -8
 1828              		.cfi_offset 14, -4
 444:Middlewares/Third_Party/FreeRTOS/Source/timers.c **** 
 1829              		.loc 1 444 1 is_stmt 1 view .LVU488
 1830              	.LVL136:
 446:Middlewares/Third_Party/FreeRTOS/Source/timers.c **** 	taskENTER_CRITICAL();
 1831              		.loc 1 446 2 view .LVU489
 1832 0002 68B1     		cbz	r0, .L140
 1833 0004 0D46     		mov	r5, r1
 1834 0006 0446     		mov	r4, r0
 446:Middlewares/Third_Party/FreeRTOS/Source/timers.c **** 	taskENTER_CRITICAL();
 1835              		.loc 1 446 24 discriminator 2 view .LVU490
 447:Middlewares/Third_Party/FreeRTOS/Source/timers.c **** 	{
 1836              		.loc 1 447 2 discriminator 2 view .LVU491
 1837 0008 FFF7FEFF 		bl	vPortEnterCritical
 1838              	.LVL137:
 449:Middlewares/Third_Party/FreeRTOS/Source/timers.c **** 		{
 1839              		.loc 1 449 3 discriminator 2 view .LVU492
 449:Middlewares/Third_Party/FreeRTOS/Source/timers.c **** 		{
 1840              		.loc 1 449 5 is_stmt 0 discriminator 2 view .LVU493
 1841 000c 8DB1     		cbz	r5, .L137
 451:Middlewares/Third_Party/FreeRTOS/Source/timers.c **** 		}
 1842              		.loc 1 451 4 is_stmt 1 view .LVU494
 451:Middlewares/Third_Party/FreeRTOS/Source/timers.c **** 		}
 1843              		.loc 1 451 22 is_stmt 0 view .LVU495
 1844 000e 94F82830 		ldrb	r3, [r4, #40]	@ zero_extendqisi2
 1845 0012 43F00403 		orr	r3, r3, #4
 1846 0016 84F82830 		strb	r3, [r4, #40]
 1847              	.L138:
 458:Middlewares/Third_Party/FreeRTOS/Source/timers.c **** }
 1848              		.loc 1 458 2 is_stmt 1 view .LVU496
 1849 001a FFF7FEFF 		bl	vPortExitCritical
 1850              	.LVL138:
 459:Middlewares/Third_Party/FreeRTOS/Source/timers.c **** /*-----------------------------------------------------------*/
 1851              		.loc 1 459 1 is_stmt 0 view .LVU497
 1852 001e 38BD     		pop	{r3, r4, r5, pc}
 1853              	.LVL139:
ARM GAS  /tmp/ccLaWYPJ.s 			page 61


 1854              	.L140:
 446:Middlewares/Third_Party/FreeRTOS/Source/timers.c **** 	taskENTER_CRITICAL();
 1855              		.loc 1 446 2 is_stmt 1 view .LVU498
 1856              	.LBB69:
 1857              	.LBI69:
 191:Middlewares/Third_Party/FreeRTOS/Source/portable/GCC/ARM_CM4F/portmacro.h **** {
 1858              		.loc 2 191 30 view .LVU499
 1859              	.LBB70:
 193:Middlewares/Third_Party/FreeRTOS/Source/portable/GCC/ARM_CM4F/portmacro.h **** 
 1860              		.loc 2 193 1 view .LVU500
 1861              		.loc 2 195 2 view .LVU501
 1862              		.syntax unified
 1863              	@ 195 "Middlewares/Third_Party/FreeRTOS/Source/portable/GCC/ARM_CM4F/portmacro.h" 1
 1864 0020 4FF05003 			mov r3, #80												
 1865 0024 83F31188 		msr basepri, r3											
 1866 0028 BFF36F8F 		isb														
 1867 002c BFF34F8F 		dsb														
 1868              	
 1869              	@ 0 "" 2
 1870              	.LVL140:
 1871              		.thumb
 1872              		.syntax unified
 1873              	.L136:
 1874              		.loc 2 195 2 is_stmt 0 view .LVU502
 1875              	.LBE70:
 1876              	.LBE69:
 446:Middlewares/Third_Party/FreeRTOS/Source/timers.c **** 	taskENTER_CRITICAL();
 1877              		.loc 1 446 2 is_stmt 1 discriminator 1 view .LVU503
 446:Middlewares/Third_Party/FreeRTOS/Source/timers.c **** 	taskENTER_CRITICAL();
 1878              		.loc 1 446 2 discriminator 1 view .LVU504
 446:Middlewares/Third_Party/FreeRTOS/Source/timers.c **** 	taskENTER_CRITICAL();
 1879              		.loc 1 446 2 discriminator 1 view .LVU505
 1880 0030 FEE7     		b	.L136
 1881              	.LVL141:
 1882              	.L137:
 455:Middlewares/Third_Party/FreeRTOS/Source/timers.c **** 		}
 1883              		.loc 1 455 4 view .LVU506
 455:Middlewares/Third_Party/FreeRTOS/Source/timers.c **** 		}
 1884              		.loc 1 455 22 is_stmt 0 view .LVU507
 1885 0032 94F82830 		ldrb	r3, [r4, #40]	@ zero_extendqisi2
 1886 0036 23F00403 		bic	r3, r3, #4
 1887 003a 84F82830 		strb	r3, [r4, #40]
 1888 003e ECE7     		b	.L138
 1889              		.cfi_endproc
 1890              	.LFE11:
 1892              		.section	.text.xTimerGetExpiryTime,"ax",%progbits
 1893              		.align	1
 1894              		.global	xTimerGetExpiryTime
 1895              		.syntax unified
 1896              		.thumb
 1897              		.thumb_func
 1898              		.fpu fpv4-sp-d16
 1900              	xTimerGetExpiryTime:
 1901              	.LVL142:
 1902              	.LFB12:
 463:Middlewares/Third_Party/FreeRTOS/Source/timers.c **** Timer_t * pxTimer =  xTimer;
 1903              		.loc 1 463 1 is_stmt 1 view -0
ARM GAS  /tmp/ccLaWYPJ.s 			page 62


 1904              		.cfi_startproc
 1905              		@ args = 0, pretend = 0, frame = 0
 1906              		@ frame_needed = 0, uses_anonymous_args = 0
 1907              		@ link register save eliminated.
 464:Middlewares/Third_Party/FreeRTOS/Source/timers.c **** TickType_t xReturn;
 1908              		.loc 1 464 1 view .LVU509
 465:Middlewares/Third_Party/FreeRTOS/Source/timers.c **** 
 1909              		.loc 1 465 1 view .LVU510
 467:Middlewares/Third_Party/FreeRTOS/Source/timers.c **** 	xReturn = listGET_LIST_ITEM_VALUE( &( pxTimer->xTimerListItem ) );
 1910              		.loc 1 467 2 view .LVU511
 1911 0000 08B1     		cbz	r0, .L144
 467:Middlewares/Third_Party/FreeRTOS/Source/timers.c **** 	xReturn = listGET_LIST_ITEM_VALUE( &( pxTimer->xTimerListItem ) );
 1912              		.loc 1 467 24 discriminator 2 view .LVU512
 468:Middlewares/Third_Party/FreeRTOS/Source/timers.c **** 	return xReturn;
 1913              		.loc 1 468 2 discriminator 2 view .LVU513
 1914              	.LVL143:
 469:Middlewares/Third_Party/FreeRTOS/Source/timers.c **** }
 1915              		.loc 1 469 2 discriminator 2 view .LVU514
 470:Middlewares/Third_Party/FreeRTOS/Source/timers.c **** /*-----------------------------------------------------------*/
 1916              		.loc 1 470 1 is_stmt 0 discriminator 2 view .LVU515
 1917 0002 4068     		ldr	r0, [r0, #4]
 1918              	.LVL144:
 470:Middlewares/Third_Party/FreeRTOS/Source/timers.c **** /*-----------------------------------------------------------*/
 1919              		.loc 1 470 1 discriminator 2 view .LVU516
 1920 0004 7047     		bx	lr
 1921              	.LVL145:
 1922              	.L144:
 467:Middlewares/Third_Party/FreeRTOS/Source/timers.c **** 	xReturn = listGET_LIST_ITEM_VALUE( &( pxTimer->xTimerListItem ) );
 1923              		.loc 1 467 2 is_stmt 1 view .LVU517
 1924              	.LBB71:
 1925              	.LBI71:
 191:Middlewares/Third_Party/FreeRTOS/Source/portable/GCC/ARM_CM4F/portmacro.h **** {
 1926              		.loc 2 191 30 view .LVU518
 1927              	.LBB72:
 193:Middlewares/Third_Party/FreeRTOS/Source/portable/GCC/ARM_CM4F/portmacro.h **** 
 1928              		.loc 2 193 1 view .LVU519
 1929              		.loc 2 195 2 view .LVU520
 1930              		.syntax unified
 1931              	@ 195 "Middlewares/Third_Party/FreeRTOS/Source/portable/GCC/ARM_CM4F/portmacro.h" 1
 1932 0006 4FF05003 			mov r3, #80												
 1933 000a 83F31188 		msr basepri, r3											
 1934 000e BFF36F8F 		isb														
 1935 0012 BFF34F8F 		dsb														
 1936              	
 1937              	@ 0 "" 2
 1938              	.LVL146:
 1939              		.thumb
 1940              		.syntax unified
 1941              	.L143:
 1942              		.loc 2 195 2 is_stmt 0 view .LVU521
 1943              	.LBE72:
 1944              	.LBE71:
 467:Middlewares/Third_Party/FreeRTOS/Source/timers.c **** 	xReturn = listGET_LIST_ITEM_VALUE( &( pxTimer->xTimerListItem ) );
 1945              		.loc 1 467 2 is_stmt 1 discriminator 1 view .LVU522
 467:Middlewares/Third_Party/FreeRTOS/Source/timers.c **** 	xReturn = listGET_LIST_ITEM_VALUE( &( pxTimer->xTimerListItem ) );
 1946              		.loc 1 467 2 discriminator 1 view .LVU523
 467:Middlewares/Third_Party/FreeRTOS/Source/timers.c **** 	xReturn = listGET_LIST_ITEM_VALUE( &( pxTimer->xTimerListItem ) );
ARM GAS  /tmp/ccLaWYPJ.s 			page 63


 1947              		.loc 1 467 2 discriminator 1 view .LVU524
 1948 0016 FEE7     		b	.L143
 1949              		.cfi_endproc
 1950              	.LFE12:
 1952              		.section	.text.pcTimerGetName,"ax",%progbits
 1953              		.align	1
 1954              		.global	pcTimerGetName
 1955              		.syntax unified
 1956              		.thumb
 1957              		.thumb_func
 1958              		.fpu fpv4-sp-d16
 1960              	pcTimerGetName:
 1961              	.LVL147:
 1962              	.LFB13:
 474:Middlewares/Third_Party/FreeRTOS/Source/timers.c **** Timer_t *pxTimer = xTimer;
 1963              		.loc 1 474 1 view -0
 1964              		.cfi_startproc
 1965              		@ args = 0, pretend = 0, frame = 0
 1966              		@ frame_needed = 0, uses_anonymous_args = 0
 1967              		@ link register save eliminated.
 475:Middlewares/Third_Party/FreeRTOS/Source/timers.c **** 
 1968              		.loc 1 475 1 view .LVU526
 477:Middlewares/Third_Party/FreeRTOS/Source/timers.c **** 	return pxTimer->pcTimerName;
 1969              		.loc 1 477 2 view .LVU527
 1970 0000 08B1     		cbz	r0, .L148
 477:Middlewares/Third_Party/FreeRTOS/Source/timers.c **** 	return pxTimer->pcTimerName;
 1971              		.loc 1 477 24 discriminator 2 view .LVU528
 478:Middlewares/Third_Party/FreeRTOS/Source/timers.c **** }
 1972              		.loc 1 478 2 discriminator 2 view .LVU529
 479:Middlewares/Third_Party/FreeRTOS/Source/timers.c **** /*-----------------------------------------------------------*/
 1973              		.loc 1 479 1 is_stmt 0 discriminator 2 view .LVU530
 1974 0002 0068     		ldr	r0, [r0]
 1975              	.LVL148:
 479:Middlewares/Third_Party/FreeRTOS/Source/timers.c **** /*-----------------------------------------------------------*/
 1976              		.loc 1 479 1 discriminator 2 view .LVU531
 1977 0004 7047     		bx	lr
 1978              	.LVL149:
 1979              	.L148:
 477:Middlewares/Third_Party/FreeRTOS/Source/timers.c **** 	return pxTimer->pcTimerName;
 1980              		.loc 1 477 2 is_stmt 1 view .LVU532
 1981              	.LBB73:
 1982              	.LBI73:
 191:Middlewares/Third_Party/FreeRTOS/Source/portable/GCC/ARM_CM4F/portmacro.h **** {
 1983              		.loc 2 191 30 view .LVU533
 1984              	.LBB74:
 193:Middlewares/Third_Party/FreeRTOS/Source/portable/GCC/ARM_CM4F/portmacro.h **** 
 1985              		.loc 2 193 1 view .LVU534
 1986              		.loc 2 195 2 view .LVU535
 1987              		.syntax unified
 1988              	@ 195 "Middlewares/Third_Party/FreeRTOS/Source/portable/GCC/ARM_CM4F/portmacro.h" 1
 1989 0006 4FF05003 			mov r3, #80												
 1990 000a 83F31188 		msr basepri, r3											
 1991 000e BFF36F8F 		isb														
 1992 0012 BFF34F8F 		dsb														
 1993              	
 1994              	@ 0 "" 2
 1995              	.LVL150:
ARM GAS  /tmp/ccLaWYPJ.s 			page 64


 1996              		.thumb
 1997              		.syntax unified
 1998              	.L147:
 1999              		.loc 2 195 2 is_stmt 0 view .LVU536
 2000              	.LBE74:
 2001              	.LBE73:
 477:Middlewares/Third_Party/FreeRTOS/Source/timers.c **** 	return pxTimer->pcTimerName;
 2002              		.loc 1 477 2 is_stmt 1 discriminator 1 view .LVU537
 477:Middlewares/Third_Party/FreeRTOS/Source/timers.c **** 	return pxTimer->pcTimerName;
 2003              		.loc 1 477 2 discriminator 1 view .LVU538
 477:Middlewares/Third_Party/FreeRTOS/Source/timers.c **** 	return pxTimer->pcTimerName;
 2004              		.loc 1 477 2 discriminator 1 view .LVU539
 2005 0016 FEE7     		b	.L147
 2006              		.cfi_endproc
 2007              	.LFE13:
 2009              		.section	.text.xTimerIsTimerActive,"ax",%progbits
 2010              		.align	1
 2011              		.global	xTimerIsTimerActive
 2012              		.syntax unified
 2013              		.thumb
 2014              		.thumb_func
 2015              		.fpu fpv4-sp-d16
 2017              	xTimerIsTimerActive:
 2018              	.LVL151:
 2019              	.LFB23:
 965:Middlewares/Third_Party/FreeRTOS/Source/timers.c **** /*-----------------------------------------------------------*/
 966:Middlewares/Third_Party/FreeRTOS/Source/timers.c **** 
 967:Middlewares/Third_Party/FreeRTOS/Source/timers.c **** BaseType_t xTimerIsTimerActive( TimerHandle_t xTimer )
 968:Middlewares/Third_Party/FreeRTOS/Source/timers.c **** {
 2020              		.loc 1 968 1 view -0
 2021              		.cfi_startproc
 2022              		@ args = 0, pretend = 0, frame = 0
 2023              		@ frame_needed = 0, uses_anonymous_args = 0
 969:Middlewares/Third_Party/FreeRTOS/Source/timers.c **** BaseType_t xReturn;
 2024              		.loc 1 969 1 view .LVU541
 970:Middlewares/Third_Party/FreeRTOS/Source/timers.c **** Timer_t *pxTimer = xTimer;
 2025              		.loc 1 970 1 view .LVU542
 971:Middlewares/Third_Party/FreeRTOS/Source/timers.c **** 
 972:Middlewares/Third_Party/FreeRTOS/Source/timers.c **** 	configASSERT( xTimer );
 2026              		.loc 1 972 2 view .LVU543
 2027 0000 68B1     		cbz	r0, .L156
 968:Middlewares/Third_Party/FreeRTOS/Source/timers.c **** BaseType_t xReturn;
 2028              		.loc 1 968 1 is_stmt 0 discriminator 2 view .LVU544
 2029 0002 10B5     		push	{r4, lr}
 2030              	.LCFI40:
 2031              		.cfi_def_cfa_offset 8
 2032              		.cfi_offset 4, -8
 2033              		.cfi_offset 14, -4
 2034 0004 0446     		mov	r4, r0
 2035              		.loc 1 972 24 is_stmt 1 discriminator 2 view .LVU545
 973:Middlewares/Third_Party/FreeRTOS/Source/timers.c **** 
 974:Middlewares/Third_Party/FreeRTOS/Source/timers.c **** 	/* Is the timer in the list of active timers? */
 975:Middlewares/Third_Party/FreeRTOS/Source/timers.c **** 	taskENTER_CRITICAL();
 2036              		.loc 1 975 2 discriminator 2 view .LVU546
 2037 0006 FFF7FEFF 		bl	vPortEnterCritical
 2038              	.LVL152:
 976:Middlewares/Third_Party/FreeRTOS/Source/timers.c **** 	{
ARM GAS  /tmp/ccLaWYPJ.s 			page 65


 977:Middlewares/Third_Party/FreeRTOS/Source/timers.c **** 		if( ( pxTimer->ucStatus & tmrSTATUS_IS_ACTIVE ) == 0 )
 2039              		.loc 1 977 3 discriminator 2 view .LVU547
 2040              		.loc 1 977 16 is_stmt 0 discriminator 2 view .LVU548
 2041 000a 94F82830 		ldrb	r3, [r4, #40]	@ zero_extendqisi2
 2042              		.loc 1 977 5 discriminator 2 view .LVU549
 2043 000e 13F0010F 		tst	r3, #1
 2044 0012 0DD1     		bne	.L153
 978:Middlewares/Third_Party/FreeRTOS/Source/timers.c **** 		{
 979:Middlewares/Third_Party/FreeRTOS/Source/timers.c **** 			xReturn = pdFALSE;
 2045              		.loc 1 979 12 view .LVU550
 2046 0014 0024     		movs	r4, #0
 2047              	.LVL153:
 2048              	.L152:
 980:Middlewares/Third_Party/FreeRTOS/Source/timers.c **** 		}
 981:Middlewares/Third_Party/FreeRTOS/Source/timers.c **** 		else
 982:Middlewares/Third_Party/FreeRTOS/Source/timers.c **** 		{
 983:Middlewares/Third_Party/FreeRTOS/Source/timers.c **** 			xReturn = pdTRUE;
 984:Middlewares/Third_Party/FreeRTOS/Source/timers.c **** 		}
 985:Middlewares/Third_Party/FreeRTOS/Source/timers.c **** 	}
 986:Middlewares/Third_Party/FreeRTOS/Source/timers.c **** 	taskEXIT_CRITICAL();
 2049              		.loc 1 986 2 is_stmt 1 view .LVU551
 2050 0016 FFF7FEFF 		bl	vPortExitCritical
 2051              	.LVL154:
 987:Middlewares/Third_Party/FreeRTOS/Source/timers.c **** 
 988:Middlewares/Third_Party/FreeRTOS/Source/timers.c **** 	return xReturn;
 2052              		.loc 1 988 2 view .LVU552
 989:Middlewares/Third_Party/FreeRTOS/Source/timers.c **** } /*lint !e818 Can't be pointer to const due to the typedef. */
 2053              		.loc 1 989 1 is_stmt 0 view .LVU553
 2054 001a 2046     		mov	r0, r4
 2055 001c 10BD     		pop	{r4, pc}
 2056              	.LVL155:
 2057              	.L156:
 2058              	.LCFI41:
 2059              		.cfi_def_cfa_offset 0
 2060              		.cfi_restore 4
 2061              		.cfi_restore 14
 972:Middlewares/Third_Party/FreeRTOS/Source/timers.c **** 
 2062              		.loc 1 972 2 is_stmt 1 view .LVU554
 2063              	.LBB75:
 2064              	.LBI75:
 191:Middlewares/Third_Party/FreeRTOS/Source/portable/GCC/ARM_CM4F/portmacro.h **** {
 2065              		.loc 2 191 30 view .LVU555
 2066              	.LBB76:
 193:Middlewares/Third_Party/FreeRTOS/Source/portable/GCC/ARM_CM4F/portmacro.h **** 
 2067              		.loc 2 193 1 view .LVU556
 2068              		.loc 2 195 2 view .LVU557
 2069              		.syntax unified
 2070              	@ 195 "Middlewares/Third_Party/FreeRTOS/Source/portable/GCC/ARM_CM4F/portmacro.h" 1
 2071 001e 4FF05003 			mov r3, #80												
 2072 0022 83F31188 		msr basepri, r3											
 2073 0026 BFF36F8F 		isb														
 2074 002a BFF34F8F 		dsb														
 2075              	
 2076              	@ 0 "" 2
 2077              	.LVL156:
 2078              		.thumb
 2079              		.syntax unified
ARM GAS  /tmp/ccLaWYPJ.s 			page 66


 2080              	.L151:
 2081              		.loc 2 195 2 is_stmt 0 view .LVU558
 2082              	.LBE76:
 2083              	.LBE75:
 972:Middlewares/Third_Party/FreeRTOS/Source/timers.c **** 
 2084              		.loc 1 972 2 is_stmt 1 discriminator 1 view .LVU559
 972:Middlewares/Third_Party/FreeRTOS/Source/timers.c **** 
 2085              		.loc 1 972 2 discriminator 1 view .LVU560
 972:Middlewares/Third_Party/FreeRTOS/Source/timers.c **** 
 2086              		.loc 1 972 2 discriminator 1 view .LVU561
 2087 002e FEE7     		b	.L151
 2088              	.LVL157:
 2089              	.L153:
 2090              	.LCFI42:
 2091              		.cfi_def_cfa_offset 8
 2092              		.cfi_offset 4, -8
 2093              		.cfi_offset 14, -4
 983:Middlewares/Third_Party/FreeRTOS/Source/timers.c **** 		}
 2094              		.loc 1 983 12 is_stmt 0 view .LVU562
 2095 0030 0124     		movs	r4, #1
 2096              	.LVL158:
 983:Middlewares/Third_Party/FreeRTOS/Source/timers.c **** 		}
 2097              		.loc 1 983 12 view .LVU563
 2098 0032 F0E7     		b	.L152
 2099              		.cfi_endproc
 2100              	.LFE23:
 2102              		.section	.text.pvTimerGetTimerID,"ax",%progbits
 2103              		.align	1
 2104              		.global	pvTimerGetTimerID
 2105              		.syntax unified
 2106              		.thumb
 2107              		.thumb_func
 2108              		.fpu fpv4-sp-d16
 2110              	pvTimerGetTimerID:
 2111              	.LVL159:
 2112              	.LFB24:
 990:Middlewares/Third_Party/FreeRTOS/Source/timers.c **** /*-----------------------------------------------------------*/
 991:Middlewares/Third_Party/FreeRTOS/Source/timers.c **** 
 992:Middlewares/Third_Party/FreeRTOS/Source/timers.c **** void *pvTimerGetTimerID( const TimerHandle_t xTimer )
 993:Middlewares/Third_Party/FreeRTOS/Source/timers.c **** {
 2113              		.loc 1 993 1 is_stmt 1 view -0
 2114              		.cfi_startproc
 2115              		@ args = 0, pretend = 0, frame = 0
 2116              		@ frame_needed = 0, uses_anonymous_args = 0
 994:Middlewares/Third_Party/FreeRTOS/Source/timers.c **** Timer_t * const pxTimer = xTimer;
 2117              		.loc 1 994 1 view .LVU565
 995:Middlewares/Third_Party/FreeRTOS/Source/timers.c **** void *pvReturn;
 2118              		.loc 1 995 1 view .LVU566
 996:Middlewares/Third_Party/FreeRTOS/Source/timers.c **** 
 997:Middlewares/Third_Party/FreeRTOS/Source/timers.c **** 	configASSERT( xTimer );
 2119              		.loc 1 997 2 view .LVU567
 2120 0000 40B1     		cbz	r0, .L162
 993:Middlewares/Third_Party/FreeRTOS/Source/timers.c **** Timer_t * const pxTimer = xTimer;
 2121              		.loc 1 993 1 is_stmt 0 discriminator 2 view .LVU568
 2122 0002 10B5     		push	{r4, lr}
 2123              	.LCFI43:
 2124              		.cfi_def_cfa_offset 8
ARM GAS  /tmp/ccLaWYPJ.s 			page 67


 2125              		.cfi_offset 4, -8
 2126              		.cfi_offset 14, -4
 2127 0004 0446     		mov	r4, r0
 2128              		.loc 1 997 24 is_stmt 1 discriminator 2 view .LVU569
 998:Middlewares/Third_Party/FreeRTOS/Source/timers.c **** 
 999:Middlewares/Third_Party/FreeRTOS/Source/timers.c **** 	taskENTER_CRITICAL();
 2129              		.loc 1 999 2 discriminator 2 view .LVU570
 2130 0006 FFF7FEFF 		bl	vPortEnterCritical
 2131              	.LVL160:
1000:Middlewares/Third_Party/FreeRTOS/Source/timers.c **** 	{
1001:Middlewares/Third_Party/FreeRTOS/Source/timers.c **** 		pvReturn = pxTimer->pvTimerID;
 2132              		.loc 1 1001 3 discriminator 2 view .LVU571
 2133              		.loc 1 1001 12 is_stmt 0 discriminator 2 view .LVU572
 2134 000a E469     		ldr	r4, [r4, #28]
 2135              	.LVL161:
1002:Middlewares/Third_Party/FreeRTOS/Source/timers.c **** 	}
1003:Middlewares/Third_Party/FreeRTOS/Source/timers.c **** 	taskEXIT_CRITICAL();
 2136              		.loc 1 1003 2 is_stmt 1 discriminator 2 view .LVU573
 2137 000c FFF7FEFF 		bl	vPortExitCritical
 2138              	.LVL162:
1004:Middlewares/Third_Party/FreeRTOS/Source/timers.c **** 
1005:Middlewares/Third_Party/FreeRTOS/Source/timers.c **** 	return pvReturn;
 2139              		.loc 1 1005 2 discriminator 2 view .LVU574
1006:Middlewares/Third_Party/FreeRTOS/Source/timers.c **** }
 2140              		.loc 1 1006 1 is_stmt 0 discriminator 2 view .LVU575
 2141 0010 2046     		mov	r0, r4
 2142 0012 10BD     		pop	{r4, pc}
 2143              	.LVL163:
 2144              	.L162:
 2145              	.LCFI44:
 2146              		.cfi_def_cfa_offset 0
 2147              		.cfi_restore 4
 2148              		.cfi_restore 14
 997:Middlewares/Third_Party/FreeRTOS/Source/timers.c **** 
 2149              		.loc 1 997 2 is_stmt 1 view .LVU576
 2150              	.LBB77:
 2151              	.LBI77:
 191:Middlewares/Third_Party/FreeRTOS/Source/portable/GCC/ARM_CM4F/portmacro.h **** {
 2152              		.loc 2 191 30 view .LVU577
 2153              	.LBB78:
 193:Middlewares/Third_Party/FreeRTOS/Source/portable/GCC/ARM_CM4F/portmacro.h **** 
 2154              		.loc 2 193 1 view .LVU578
 2155              		.loc 2 195 2 view .LVU579
 2156              		.syntax unified
 2157              	@ 195 "Middlewares/Third_Party/FreeRTOS/Source/portable/GCC/ARM_CM4F/portmacro.h" 1
 2158 0014 4FF05003 			mov r3, #80												
 2159 0018 83F31188 		msr basepri, r3											
 2160 001c BFF36F8F 		isb														
 2161 0020 BFF34F8F 		dsb														
 2162              	
 2163              	@ 0 "" 2
 2164              	.LVL164:
 2165              		.thumb
 2166              		.syntax unified
 2167              	.L159:
 2168              		.loc 2 195 2 is_stmt 0 view .LVU580
 2169              	.LBE78:
ARM GAS  /tmp/ccLaWYPJ.s 			page 68


 2170              	.LBE77:
 997:Middlewares/Third_Party/FreeRTOS/Source/timers.c **** 
 2171              		.loc 1 997 2 is_stmt 1 discriminator 1 view .LVU581
 997:Middlewares/Third_Party/FreeRTOS/Source/timers.c **** 
 2172              		.loc 1 997 2 discriminator 1 view .LVU582
 997:Middlewares/Third_Party/FreeRTOS/Source/timers.c **** 
 2173              		.loc 1 997 2 discriminator 1 view .LVU583
 2174 0024 FEE7     		b	.L159
 2175              		.cfi_endproc
 2176              	.LFE24:
 2178              		.section	.text.vTimerSetTimerID,"ax",%progbits
 2179              		.align	1
 2180              		.global	vTimerSetTimerID
 2181              		.syntax unified
 2182              		.thumb
 2183              		.thumb_func
 2184              		.fpu fpv4-sp-d16
 2186              	vTimerSetTimerID:
 2187              	.LVL165:
 2188              	.LFB25:
1007:Middlewares/Third_Party/FreeRTOS/Source/timers.c **** /*-----------------------------------------------------------*/
1008:Middlewares/Third_Party/FreeRTOS/Source/timers.c **** 
1009:Middlewares/Third_Party/FreeRTOS/Source/timers.c **** void vTimerSetTimerID( TimerHandle_t xTimer, void *pvNewID )
1010:Middlewares/Third_Party/FreeRTOS/Source/timers.c **** {
 2189              		.loc 1 1010 1 view -0
 2190              		.cfi_startproc
 2191              		@ args = 0, pretend = 0, frame = 0
 2192              		@ frame_needed = 0, uses_anonymous_args = 0
 2193              		.loc 1 1010 1 is_stmt 0 view .LVU585
 2194 0000 38B5     		push	{r3, r4, r5, lr}
 2195              	.LCFI45:
 2196              		.cfi_def_cfa_offset 16
 2197              		.cfi_offset 3, -16
 2198              		.cfi_offset 4, -12
 2199              		.cfi_offset 5, -8
 2200              		.cfi_offset 14, -4
1011:Middlewares/Third_Party/FreeRTOS/Source/timers.c **** Timer_t * const pxTimer = xTimer;
 2201              		.loc 1 1011 1 is_stmt 1 view .LVU586
 2202              	.LVL166:
1012:Middlewares/Third_Party/FreeRTOS/Source/timers.c **** 
1013:Middlewares/Third_Party/FreeRTOS/Source/timers.c **** 	configASSERT( xTimer );
 2203              		.loc 1 1013 2 view .LVU587
 2204 0002 38B1     		cbz	r0, .L167
 2205 0004 0C46     		mov	r4, r1
 2206 0006 0546     		mov	r5, r0
 2207              		.loc 1 1013 24 discriminator 2 view .LVU588
1014:Middlewares/Third_Party/FreeRTOS/Source/timers.c **** 
1015:Middlewares/Third_Party/FreeRTOS/Source/timers.c **** 	taskENTER_CRITICAL();
 2208              		.loc 1 1015 2 discriminator 2 view .LVU589
 2209 0008 FFF7FEFF 		bl	vPortEnterCritical
 2210              	.LVL167:
1016:Middlewares/Third_Party/FreeRTOS/Source/timers.c **** 	{
1017:Middlewares/Third_Party/FreeRTOS/Source/timers.c **** 		pxTimer->pvTimerID = pvNewID;
 2211              		.loc 1 1017 3 discriminator 2 view .LVU590
 2212              		.loc 1 1017 22 is_stmt 0 discriminator 2 view .LVU591
 2213 000c EC61     		str	r4, [r5, #28]
1018:Middlewares/Third_Party/FreeRTOS/Source/timers.c **** 	}
ARM GAS  /tmp/ccLaWYPJ.s 			page 69


1019:Middlewares/Third_Party/FreeRTOS/Source/timers.c **** 	taskEXIT_CRITICAL();
 2214              		.loc 1 1019 2 is_stmt 1 discriminator 2 view .LVU592
 2215 000e FFF7FEFF 		bl	vPortExitCritical
 2216              	.LVL168:
1020:Middlewares/Third_Party/FreeRTOS/Source/timers.c **** }
 2217              		.loc 1 1020 1 is_stmt 0 discriminator 2 view .LVU593
 2218 0012 38BD     		pop	{r3, r4, r5, pc}
 2219              	.LVL169:
 2220              	.L167:
1013:Middlewares/Third_Party/FreeRTOS/Source/timers.c **** 
 2221              		.loc 1 1013 2 is_stmt 1 view .LVU594
 2222              	.LBB79:
 2223              	.LBI79:
 191:Middlewares/Third_Party/FreeRTOS/Source/portable/GCC/ARM_CM4F/portmacro.h **** {
 2224              		.loc 2 191 30 view .LVU595
 2225              	.LBB80:
 193:Middlewares/Third_Party/FreeRTOS/Source/portable/GCC/ARM_CM4F/portmacro.h **** 
 2226              		.loc 2 193 1 view .LVU596
 2227              		.loc 2 195 2 view .LVU597
 2228              		.syntax unified
 2229              	@ 195 "Middlewares/Third_Party/FreeRTOS/Source/portable/GCC/ARM_CM4F/portmacro.h" 1
 2230 0014 4FF05003 			mov r3, #80												
 2231 0018 83F31188 		msr basepri, r3											
 2232 001c BFF36F8F 		isb														
